
========================================================================

** ELF Header Information

    File Name: .\Objects\UART_DMA.axf

    Machine class: ELFCLASS32 (32-bit)
    Data encoding: ELFDATA2LSB (Little endian)
    Header version: EV_CURRENT (Current version)
    Operating System ABI: none
    ABI Version: 0
    File Type: ET_EXEC (Executable) (2)
    Machine: EM_ARM (ARM)

    Image Entry point: 0x00000000
    Flags: EF_ARM_HASENTRY + EF_ARM_ABI_FLOAT_SOFT (0x05000202)

    ARM ELF revision: 5 (ABI version 2)

    Conforms to Soft float procedure-call standard

    Built with
    Component: ARM Compiler 5.06 update 6 (build 750) Tool: armasm [4d35ec]
    Component: ARM Compiler 5.06 update 6 (build 750) Tool: armlink [4d35ed]

    Header size: 52 bytes (0x34)
    Program header entry size: 32 bytes (0x20)
    Section header entry size: 40 bytes (0x28)

    Program header entries: 1
    Section header entries: 16

    Program header offset: 191944 (0x0002edc8)
    Section header offset: 191976 (0x0002ede8)

    Section header string table index: 15

========================================================================

** Program header #0 (PT_LOAD) [PF_X + PF_W + PF_R + PF_ARM_ENTRY]
    Size : 164372 bytes (15352 bytes in file)
    Virtual address: 0x00000000 (Alignment 16384)


========================================================================

** Section #1 'ER_IROM1' (SHT_PROGBITS) [SHF_ALLOC + SHF_EXECINSTR]
    Size   : 15324 bytes (alignment 4)
    Address: 0x00000000

    $a
    NUC_INIT
    Vector_Table
        0x00000000:    ea000014    ....    B        Reset_Go ; 0x58
        0x00000004:    e59ff018    ....    LDR      pc,[pc,#24] ; [0x24] = 0x40
        0x00000008:    e59ff018    ....    LDR      pc,[pc,#24] ; [0x28] = 0x44
        0x0000000c:    e59ff018    ....    LDR      pc,[pc,#24] ; [0x2c] = 0x48
        0x00000010:    e59ff018    ....    LDR      pc,[pc,#24] ; [0x30] = 0x4c
    $d
        0x00000014:    00000000    ....    DCD    0
    $a
        0x00000018:    e59ff018    ....    LDR      pc,[pc,#24] ; [0x38] = 0x50
        0x0000001c:    e59ff018    ....    LDR      pc,[pc,#24] ; [0x3c] = 0x54
    $d
        0x00000020:    00000058    X...    DCD    88
        0x00000024:    00000040    @...    DCD    64
        0x00000028:    00000044    D...    DCD    68
        0x0000002c:    00000048    H...    DCD    72
        0x00000030:    0000004c    L...    DCD    76
        0x00000034:    00000000    ....    DCD    0
        0x00000038:    00000050    P...    DCD    80
        0x0000003c:    00000054    T...    DCD    84
    $a
    Undefined_Handler
        0x00000040:    eafffffe    ....    B        Undefined_Handler ; 0x40
    SWI_Handler1
        0x00000044:    eafffffe    ....    B        SWI_Handler1 ; 0x44
    Prefetch_Handler
        0x00000048:    eafffffe    ....    B        Prefetch_Handler ; 0x48
    Abort_Handler
        0x0000004c:    eafffffe    ....    B        Abort_Handler ; 0x4c
    IRQ_Handler
        0x00000050:    eafffffe    ....    B        IRQ_Handler ; 0x50
    FIQ_Handler
        0x00000054:    eafffffe    ....    B        FIQ_Handler ; 0x54
    Reset_Go
        0x00000058:    e321f0db    ..!.    MSR      CPSR_c,#0xdb
        0x0000005c:    e59fd034    4...    LDR      sp,[pc,#52] ; [0x98] = 0x2000000
        0x00000060:    e321f0d7    ..!.    MSR      CPSR_c,#0xd7
        0x00000064:    e59fd030    0...    LDR      sp,[pc,#48] ; [0x9c] = 0x1ffff00
        0x00000068:    e321f0d2    ..!.    MSR      CPSR_c,#0xd2
        0x0000006c:    e59fd02c    ,...    LDR      sp,[pc,#44] ; [0xa0] = 0x1ffd800
        0x00000070:    e321f0d1    ..!.    MSR      CPSR_c,#0xd1
        0x00000074:    e59fd028    (...    LDR      sp,[pc,#40] ; [0xa4] = 0x1fffe00
        0x00000078:    e321f0df    ..!.    MSR      CPSR_c,#0xdf
        0x0000007c:    e59fd024    $...    LDR      sp,[pc,#36] ; [0xa8] = 0x1ffb000
        0x00000080:    e321f0d3    ..!.    MSR      CPSR_c,#0xd3
        0x00000084:    e59fd020     ...    LDR      sp,[pc,#32] ; [0xac] = 0x1fffc00
        0x00000088:    ee110f10    ....    MRC      p15,#0x0,r0,c1,c0,#0
        0x0000008c:    e3c00a02    ....    BIC      r0,r0,#0x2000
        0x00000090:    ee010f10    ....    MCR      p15,#0x0,r0,c1,c0,#0
        0x00000094:    ea000005    ....    B        __main ; 0xb0
    $d
        0x00000098:    02000000    ....    DCD    33554432
        0x0000009c:    01ffff00    ....    DCD    33554176
        0x000000a0:    01ffd800    ....    DCD    33544192
        0x000000a4:    01fffe00    ....    DCD    33553920
        0x000000a8:    01ffb000    ....    DCD    33533952
        0x000000ac:    01fffc00    ....    DCD    33553408
    $a
    !!!main
    __main
        0x000000b0:    eb000000    ....    BL       __scatterload ; 0xb8
        0x000000b4:    eb00003e    >...    BL       __rt_entry ; 0x1b4
    !!!scatter
    __scatterload
    __scatterload_rt2
        0x000000b8:    e28f002c    ,...    ADR      r0,{pc}+0x34 ; 0xec
        0x000000bc:    e8900c00    ....    LDM      r0,{r10,r11}
        0x000000c0:    e08aa000    ....    ADD      r10,r10,r0
        0x000000c4:    e08bb000    ....    ADD      r11,r11,r0
        0x000000c8:    e24a7001    .pJ.    SUB      r7,r10,#1
    __scatterload_null
        0x000000cc:    e15a000b    ..Z.    CMP      r10,r11
        0x000000d0:    1a000000    ....    BNE      0xd8 ; __scatterload_null + 12
        0x000000d4:    eb000036    6...    BL       __rt_entry ; 0x1b4
        0x000000d8:    e8ba000f    ....    LDM      r10!,{r0-r3}
        0x000000dc:    e24fe018    ..O.    ADR      lr,{pc}-0x10 ; 0xcc
        0x000000e0:    e3130001    ....    TST      r3,#1
        0x000000e4:    1047f003    ..G.    SUBNE    pc,r7,r3
        0x000000e8:    e12fff13    ../.    BX       r3
    $d
        0x000000ec:    00003ac0    .:..    DCD    15040
        0x000000f0:    00003af0    .:..    DCD    15088
    $a
    !!dczerorl2
    __decompress
    __decompress1
        0x000000f4:    e28fc001    ....    ADR      r12,{pc}+9 ; 0xfd
        0x000000f8:    e12fff1c    ../.    BX       r12
    $t
        0x000000fc:    188a        ..      ADDS     r2,r1,r2
    _decompress_loop
        0x000000fe:    7803        .x      LDRB     r3,[r0,#0]
        0x00000100:    3001        .0      ADDS     r0,#1
        0x00000102:    075c        \.      LSLS     r4,r3,#29
        0x00000104:    0f64        d.      LSRS     r4,r4,#29
        0x00000106:    d101        ..      BNE      _decompress_zerolen ; 0x10c
        0x00000108:    7804        .x      LDRB     r4,[r0,#0]
        0x0000010a:    3001        .0      ADDS     r0,#1
    _decompress_zerolen
        0x0000010c:    111d        ..      ASRS     r5,r3,#4
        0x0000010e:    d101        ..      BNE      _decompress_litn ; 0x114
        0x00000110:    7805        .x      LDRB     r5,[r0,#0]
        0x00000112:    3001        .0      ADDS     r0,#1
    _decompress_litn
        0x00000114:    3c01        .<      SUBS     r4,#1
        0x00000116:    d005        ..      BEQ      _decompress_copyorzero ; 0x124
    _decompress_lit
        0x00000118:    7806        .x      LDRB     r6,[r0,#0]
        0x0000011a:    3001        .0      ADDS     r0,#1
        0x0000011c:    700e        .p      STRB     r6,[r1,#0]
        0x0000011e:    3101        .1      ADDS     r1,#1
        0x00000120:    3c01        .<      SUBS     r4,#1
        0x00000122:    d1f9        ..      BNE      _decompress_lit ; 0x118
    _decompress_copyorzero
        0x00000124:    071e        ..      LSLS     r6,r3,#28
        0x00000126:    d406        ..      BMI      _decompress_copyn ; 0x136
        0x00000128:    1c2e        ..      ADDS     r6,r5,#0
        0x0000012a:    d00e        ..      BEQ      _decompress_end ; 0x14a
    _decompress_zero
        0x0000012c:    3e01        .>      SUBS     r6,#1
        0x0000012e:    558c        .U      STRB     r4,[r1,r6]
        0x00000130:    d1fc        ..      BNE      _decompress_zero ; 0x12c
        0x00000132:    1949        I.      ADDS     r1,r1,r5
        0x00000134:    e009        ..      B        _decompress_end ; 0x14a
    _decompress_copyn
        0x00000136:    7804        .x      LDRB     r4,[r0,#0]
        0x00000138:    3001        .0      ADDS     r0,#1
        0x0000013a:    1b0c        ..      SUBS     r4,r1,r4
        0x0000013c:    3501        .5      ADDS     r5,#1
    _decompress_copy
        0x0000013e:    7826        &x      LDRB     r6,[r4,#0]
        0x00000140:    3401        .4      ADDS     r4,#1
        0x00000142:    700e        .p      STRB     r6,[r1,#0]
        0x00000144:    3101        .1      ADDS     r1,#1
        0x00000146:    3d01        .=      SUBS     r5,#1
        0x00000148:    d5f9        ..      BPL      _decompress_copy ; 0x13e
    _decompress_end
        0x0000014a:    4291        .B      CMP      r1,r2
        0x0000014c:    d3d7        ..      BCC      _decompress_loop ; 0xfe
        0x0000014e:    4770        pG      BX       lr
    $a
    !!handler_copy
    __scatterload_copy
        0x00000150:    e2522010    . R.    SUBS     r2,r2,#0x10
        0x00000154:    28b00078    x..(    LDMCS    r0!,{r3-r6}
        0x00000158:    28a10078    x..(    STMCS    r1!,{r3-r6}
        0x0000015c:    8afffffb    ....    BHI      __scatterload_copy ; 0x150
        0x00000160:    e1b02e82    ....    LSLS     r2,r2,#29
        0x00000164:    28b00030    0..(    LDMCS    r0!,{r4,r5}
        0x00000168:    28a10030    0..(    STMCS    r1!,{r4,r5}
        0x0000016c:    45904000    .@.E    LDRMI    r4,[r0,#0]
        0x00000170:    45814000    .@.E    STRMI    r4,[r1,#0]
        0x00000174:    e12fff1e    ../.    BX       lr
    !!handler_zi
    __scatterload_zeroinit
        0x00000178:    e3b03000    .0..    MOVS     r3,#0
        0x0000017c:    e3b04000    .@..    MOVS     r4,#0
        0x00000180:    e3b05000    .P..    MOVS     r5,#0
        0x00000184:    e3b06000    .`..    MOVS     r6,#0
        0x00000188:    e2522010    . R.    SUBS     r2,r2,#0x10
        0x0000018c:    28a10078    x..(    STMCS    r1!,{r3-r6}
        0x00000190:    8afffffc    ....    BHI      0x188 ; __scatterload_zeroinit + 16
        0x00000194:    e1b02e82    ....    LSLS     r2,r2,#29
        0x00000198:    28a10030    0..(    STMCS    r1!,{r4,r5}
        0x0000019c:    45813000    .0.E    STRMI    r3,[r1,#0]
        0x000001a0:    e12fff1e    ../.    BX       lr
    $t
    .ARM.Collect$$libinit$$00000000
    __rt_lib_init
        0x000001a4:    b51f        ..      PUSH     {r0-r4,lr}
    .ARM.Collect$$libinit$$00000002
    .ARM.Collect$$libinit$$00000004
    .ARM.Collect$$libinit$$00000005
    __rt_lib_init_fp_1
    __rt_lib_init_heap_2
    __rt_lib_init_preinit_1
        0x000001a6:    9800        ..      LDR      r0,[sp,#0]
        0x000001a8:    9901        ..      LDR      r1,[sp,#4]
        0x000001aa:    f000fa30    ..0.    BL       _init_alloc ; 0x60e
    .ARM.Collect$$libinit$$0000000A
    .ARM.Collect$$libinit$$0000000C
    .ARM.Collect$$libinit$$0000000E
    .ARM.Collect$$libinit$$00000011
    .ARM.Collect$$libinit$$00000013
    .ARM.Collect$$libinit$$00000015
    .ARM.Collect$$libinit$$00000017
    .ARM.Collect$$libinit$$00000019
    .ARM.Collect$$libinit$$0000001B
    .ARM.Collect$$libinit$$0000001D
    .ARM.Collect$$libinit$$0000001F
    .ARM.Collect$$libinit$$00000021
    .ARM.Collect$$libinit$$00000023
    .ARM.Collect$$libinit$$00000025
    .ARM.Collect$$libinit$$0000002C
    .ARM.Collect$$libinit$$0000002E
    .ARM.Collect$$libinit$$00000030
    .ARM.Collect$$libinit$$00000032
    .ARM.Collect$$libinit$$00000033
    __rt_lib_init_alloca_1
    __rt_lib_init_argv_1
    __rt_lib_init_atexit_1
    __rt_lib_init_clock_1
    __rt_lib_init_cpp_1
    __rt_lib_init_exceptions_1
    __rt_lib_init_fp_trap_1
    __rt_lib_init_getenv_1
    __rt_lib_init_heap_1
    __rt_lib_init_lc_collate_1
    __rt_lib_init_lc_ctype_1
    __rt_lib_init_lc_monetary_1
    __rt_lib_init_lc_numeric_1
    __rt_lib_init_lc_time_1
    __rt_lib_init_rand_1
    __rt_lib_init_return
    __rt_lib_init_signal_1
    __rt_lib_init_stdio_1
    __rt_lib_init_user_alloc_1
        0x000001ae:    bd1f        ..      POP      {r0-r4,pc}
    .ARM.Collect$$libshutdown$$00000000
    __rt_lib_shutdown
        0x000001b0:    b510        ..      PUSH     {r4,lr}
    .ARM.Collect$$libshutdown$$00000002
    .ARM.Collect$$libshutdown$$00000004
    .ARM.Collect$$libshutdown$$00000007
    .ARM.Collect$$libshutdown$$0000000A
    .ARM.Collect$$libshutdown$$0000000C
    .ARM.Collect$$libshutdown$$0000000F
    .ARM.Collect$$libshutdown$$00000010
    __rt_lib_shutdown_cpp_1
    __rt_lib_shutdown_fp_trap_1
    __rt_lib_shutdown_heap_1
    __rt_lib_shutdown_return
    __rt_lib_shutdown_signal_1
    __rt_lib_shutdown_stdio_1
    __rt_lib_shutdown_user_alloc_1
        0x000001b2:    bd10        ..      POP      {r4,pc}
    $a
    .ARM.Collect$$rtentry$$00000000
    .ARM.Collect$$rtentry$$00000002
    .ARM.Collect$$rtentry$$00000004
    __rt_entry
    __rt_entry_presh_1
    __rt_entry_sh
        0x000001b4:    eb000289    ....    BL       __user_setup_stackheap ; 0xbe0
        0x000001b8:    e1a01002    ....    MOV      r1,r2
    .ARM.Collect$$rtentry$$00000009
    .ARM.Collect$$rtentry$$0000000A
    __rt_entry_li
    __rt_entry_postsh_1
        0x000001bc:    fafffff8    ....    BLX      __rt_lib_init ; 0x1a4
    .ARM.Collect$$rtentry$$0000000C
    .ARM.Collect$$rtentry$$0000000D
    __rt_entry_main
    __rt_entry_postli_1
        0x000001c0:    e59fc01c    ....    LDR      r12,[pc,#28] ; [0x1e4] = 0x1904
        0x000001c4:    e08cc00f    ....    ADD      r12,r12,pc
        0x000001c8:    e31c0001    ....    TST      r12,#1
        0x000001cc:    128fe00d    ....    ADRNE    lr,{pc}+0x15 ; 0x1e1
        0x000001d0:    01a0e00f    ....    MOVEQ    lr,pc
        0x000001d4:    e12fff1c    ../.    BX       r12
        0x000001d8:    e28fc001    ....    ADR      r12,{pc}+9 ; 0x1e1
        0x000001dc:    e12fff1c    ../.    BX       r12
    $t
        0x000001e0:    f000fac4    ....    BL       exit ; 0x76c
    $d
        0x000001e4:    00001904    ....    DCD    6404
    $a
    .ARM.Collect$$rtexit$$00000000
    __rt_exit
        0x000001e8:    e92d0003    ..-.    PUSH     {r0,r1}
    .ARM.Collect$$rtexit$$00000002
    .ARM.Collect$$rtexit$$00000003
    __rt_exit_ls
    __rt_exit_prels_1
        0x000001ec:    faffffef    ....    BLX      __rt_lib_shutdown ; 0x1b0
    .ARM.Collect$$rtexit$$00000004
    __rt_exit_exit
        0x000001f0:    e8bd0003    ....    POP      {r0,r1}
        0x000001f4:    eb000285    ....    BL       _sys_exit ; 0xc10
    $t
    .text
    .emb_text
    _maybe_terminate_alloc
    malloc
        0x000001f8:    b570        p.      PUSH     {r4-r6,lr}
        0x000001fa:    0006        ..      MOVS     r6,r0
        0x000001fc:    f000e9e8    ....    BLX      __rt_heap_descriptor ; 0x5d0
        0x00000200:    6805        .h      LDR      r5,[r0,#0]
        0x00000202:    0030        0.      MOVS     r0,r6
        0x00000204:    300b        .0      ADDS     r0,r0,#0xb
        0x00000206:    08c4        ..      LSRS     r4,r0,#3
        0x00000208:    00e4        ..      LSLS     r4,r4,#3
        0x0000020a:    42b4        .B      CMP      r4,r6
        0x0000020c:    d801        ..      BHI      0x212 ; _maybe_terminate_alloc + 26
        0x0000020e:    2000        .       MOVS     r0,#0
        0x00000210:    bd70        p.      POP      {r4-r6,pc}
        0x00000212:    6868        hh      LDR      r0,[r5,#4]
        0x00000214:    002a        *.      MOVS     r2,r5
        0x00000216:    2800        .(      CMP      r0,#0
        0x00000218:    d018        ..      BEQ      0x24c ; _maybe_terminate_alloc + 84
        0x0000021a:    6801        .h      LDR      r1,[r0,#0]
        0x0000021c:    42a1        .B      CMP      r1,r4
        0x0000021e:    d311        ..      BCC      0x244 ; _maybe_terminate_alloc + 76
        0x00000220:    000b        ..      MOVS     r3,r1
        0x00000222:    0021        !.      MOVS     r1,r4
        0x00000224:    3108        .1      ADDS     r1,r1,#8
        0x00000226:    428b        .B      CMP      r3,r1
        0x00000228:    d308        ..      BCC      0x23c ; _maybe_terminate_alloc + 68
        0x0000022a:    6843        Ch      LDR      r3,[r0,#4]
        0x0000022c:    1901        ..      ADDS     r1,r0,r4
        0x0000022e:    604b        K`      STR      r3,[r1,#4]
        0x00000230:    6803        .h      LDR      r3,[r0,#0]
        0x00000232:    1b1b        ..      SUBS     r3,r3,r4
        0x00000234:    600b        .`      STR      r3,[r1,#0]
        0x00000236:    6051        Q`      STR      r1,[r2,#4]
        0x00000238:    6004        .`      STR      r4,[r0,#0]
        0x0000023a:    e001        ..      B        0x240 ; _maybe_terminate_alloc + 72
        0x0000023c:    6841        Ah      LDR      r1,[r0,#4]
        0x0000023e:    6051        Q`      STR      r1,[r2,#4]
        0x00000240:    1d00        ..      ADDS     r0,r0,#4
        0x00000242:    bd70        p.      POP      {r4-r6,pc}
        0x00000244:    0002        ..      MOVS     r2,r0
        0x00000246:    6840        @h      LDR      r0,[r0,#4]
        0x00000248:    2800        .(      CMP      r0,#0
        0x0000024a:    d1e6        ..      BNE      0x21a ; _maybe_terminate_alloc + 34
        0x0000024c:    0021        !.      MOVS     r1,r4
        0x0000024e:    0028        (.      MOVS     r0,r5
        0x00000250:    f000f9c8    ....    BL       __Heap_Full ; 0x5e4
        0x00000254:    2800        .(      CMP      r0,#0
        0x00000256:    d1dc        ..      BNE      0x212 ; _maybe_terminate_alloc + 26
        0x00000258:    bd70        p.      POP      {r4-r6,pc}
    .text
    free
        0x0000025a:    b570        p.      PUSH     {r4-r6,lr}
        0x0000025c:    0004        ..      MOVS     r4,r0
        0x0000025e:    1f05        ..      SUBS     r5,r0,#4
        0x00000260:    f000e9b6    ....    BLX      __rt_heap_descriptor ; 0x5d0
        0x00000264:    6800        .h      LDR      r0,[r0,#0]
        0x00000266:    2c00        .,      CMP      r4,#0
        0x00000268:    d01a        ..      BEQ      0x2a0 ; free + 70
        0x0000026a:    6844        Dh      LDR      r4,[r0,#4]
        0x0000026c:    e001        ..      B        0x272 ; free + 24
        0x0000026e:    0020         .      MOVS     r0,r4
        0x00000270:    6864        dh      LDR      r4,[r4,#4]
        0x00000272:    2c00        .,      CMP      r4,#0
        0x00000274:    d001        ..      BEQ      0x27a ; free + 32
        0x00000276:    42ac        .B      CMP      r4,r5
        0x00000278:    d3f9        ..      BCC      0x26e ; free + 20
        0x0000027a:    6801        .h      LDR      r1,[r0,#0]
        0x0000027c:    180a        ..      ADDS     r2,r1,r0
        0x0000027e:    42aa        .B      CMP      r2,r5
        0x00000280:    d104        ..      BNE      0x28c ; free + 50
        0x00000282:    682a        *h      LDR      r2,[r5,#0]
        0x00000284:    1889        ..      ADDS     r1,r1,r2
        0x00000286:    0005        ..      MOVS     r5,r0
        0x00000288:    6001        .`      STR      r1,[r0,#0]
        0x0000028a:    e000        ..      B        0x28e ; free + 52
        0x0000028c:    6045        E`      STR      r5,[r0,#4]
        0x0000028e:    6828        (h      LDR      r0,[r5,#0]
        0x00000290:    1941        A.      ADDS     r1,r0,r5
        0x00000292:    42a1        .B      CMP      r1,r4
        0x00000294:    d105        ..      BNE      0x2a2 ; free + 72
        0x00000296:    6861        ah      LDR      r1,[r4,#4]
        0x00000298:    6069        i`      STR      r1,[r5,#4]
        0x0000029a:    6821        !h      LDR      r1,[r4,#0]
        0x0000029c:    1840        @.      ADDS     r0,r0,r1
        0x0000029e:    6028        (`      STR      r0,[r5,#0]
        0x000002a0:    bd70        p.      POP      {r4-r6,pc}
        0x000002a2:    606c        l`      STR      r4,[r5,#4]
        0x000002a4:    bd70        p.      POP      {r4-r6,pc}
        0x000002a6:    0000        ..      MOVS     r0,r0
    .text
    strlen
        0x000002a8:    b530        0.      PUSH     {r4,r5,lr}
        0x000002aa:    1c44        D.      ADDS     r4,r0,#1
        0x000002ac:    e003        ..      B        0x2b6 ; strlen + 14
        0x000002ae:    7801        .x      LDRB     r1,[r0,#0]
        0x000002b0:    1c40        @.      ADDS     r0,r0,#1
        0x000002b2:    2900        .)      CMP      r1,#0
        0x000002b4:    d00d        ..      BEQ      0x2d2 ; strlen + 42
        0x000002b6:    0781        ..      LSLS     r1,r0,#30
        0x000002b8:    d1f9        ..      BNE      0x2ae ; strlen + 6
        0x000002ba:    4b0b        .K      LDR      r3,[pc,#44] ; [0x2e8] = 0x1010101
        0x000002bc:    01dd        ..      LSLS     r5,r3,#7
        0x000002be:    c804        ..      LDM      r0!,{r2}
        0x000002c0:    1ad1        ..      SUBS     r1,r2,r3
        0x000002c2:    4391        .C      BICS     r1,r1,r2
        0x000002c4:    4029        )@      ANDS     r1,r1,r5
        0x000002c6:    d0fa        ..      BEQ      0x2be ; strlen + 22
        0x000002c8:    1b00        ..      SUBS     r0,r0,r4
        0x000002ca:    060a        ..      LSLS     r2,r1,#24
        0x000002cc:    d003        ..      BEQ      0x2d6 ; strlen + 46
        0x000002ce:    1ec0        ..      SUBS     r0,r0,#3
        0x000002d0:    bd30        0.      POP      {r4,r5,pc}
        0x000002d2:    1b00        ..      SUBS     r0,r0,r4
        0x000002d4:    bd30        0.      POP      {r4,r5,pc}
        0x000002d6:    040a        ..      LSLS     r2,r1,#16
        0x000002d8:    d001        ..      BEQ      0x2de ; strlen + 54
        0x000002da:    1e80        ..      SUBS     r0,r0,#2
        0x000002dc:    bd30        0.      POP      {r4,r5,pc}
        0x000002de:    0209        ..      LSLS     r1,r1,#8
        0x000002e0:    d0fc        ..      BEQ      0x2dc ; strlen + 52
        0x000002e2:    1e40        @.      SUBS     r0,r0,#1
        0x000002e4:    bd30        0.      POP      {r4,r5,pc}
    $d
        0x000002e6:    0000        ..      DCW    0
        0x000002e8:    01010101    ....    DCD    16843009
    $a
    .text
    __aeabi_memcpy
    __rt_memcpy
        0x000002ec:    e3520003    ..R.    CMP      r2,#3
        0x000002f0:    9a00002a    *...    BLS      _memcpy_lastbytes ; 0x3a0
        0x000002f4:    e210c003    ....    ANDS     r12,r0,#3
        0x000002f8:    0a000008    ....    BEQ      0x320 ; __aeabi_memcpy + 52
        0x000002fc:    e4d13001    .0..    LDRB     r3,[r1],#1
        0x00000300:    e35c0002    ..\.    CMP      r12,#2
        0x00000304:    e082200c    . ..    ADD      r2,r2,r12
        0x00000308:    94d1c001    ....    LDRBLS   r12,[r1],#1
        0x0000030c:    e4c03001    .0..    STRB     r3,[r0],#1
        0x00000310:    34d13001    .0.4    LDRBCC   r3,[r1],#1
        0x00000314:    94c0c001    ....    STRBLS   r12,[r0],#1
        0x00000318:    e2422004    . B.    SUB      r2,r2,#4
        0x0000031c:    34c03001    .0.4    STRBCC   r3,[r0],#1
        0x00000320:    e2113003    .0..    ANDS     r3,r1,#3
        0x00000324:    0a0000d3    ....    BEQ      __aeabi_memcpy4 ; 0x678
        0x00000328:    e2522004    . R.    SUBS     r2,r2,#4
        0x0000032c:    3a00001b    ...:    BCC      _memcpy_lastbytes ; 0x3a0
        0x00000330:    e731c003    ..1.    LDR      r12,[r1,-r3]!
        0x00000334:    e3530002    ..S.    CMP      r3,#2
        0x00000338:    0a000008    ....    BEQ      0x360 ; __aeabi_memcpy + 116
        0x0000033c:    8a00000f    ....    BHI      0x380 ; __aeabi_memcpy + 148
        0x00000340:    e1a0342c    ,4..    LSR      r3,r12,#8
        0x00000344:    e5b1c004    ....    LDR      r12,[r1,#4]!
        0x00000348:    e2522004    . R.    SUBS     r2,r2,#4
        0x0000034c:    e1833c0c    .<..    ORR      r3,r3,r12,LSL #24
        0x00000350:    e4803004    .0..    STR      r3,[r0],#4
        0x00000354:    2afffff9    ...*    BCS      0x340 ; __aeabi_memcpy + 84
        0x00000358:    e2811001    ....    ADD      r1,r1,#1
        0x0000035c:    ea00000f    ....    B        _memcpy_lastbytes ; 0x3a0
        0x00000360:    e1a0382c    ,8..    LSR      r3,r12,#16
        0x00000364:    e5b1c004    ....    LDR      r12,[r1,#4]!
        0x00000368:    e2522004    . R.    SUBS     r2,r2,#4
        0x0000036c:    e183380c    .8..    ORR      r3,r3,r12,LSL #16
        0x00000370:    e4803004    .0..    STR      r3,[r0],#4
        0x00000374:    2afffff9    ...*    BCS      0x360 ; __aeabi_memcpy + 116
        0x00000378:    e2811002    ....    ADD      r1,r1,#2
        0x0000037c:    ea000007    ....    B        _memcpy_lastbytes ; 0x3a0
        0x00000380:    e1a03c2c    ,<..    LSR      r3,r12,#24
        0x00000384:    e5b1c004    ....    LDR      r12,[r1,#4]!
        0x00000388:    e2522004    . R.    SUBS     r2,r2,#4
        0x0000038c:    e183340c    .4..    ORR      r3,r3,r12,LSL #8
        0x00000390:    e4803004    .0..    STR      r3,[r0],#4
        0x00000394:    2afffff9    ...*    BCS      0x380 ; __aeabi_memcpy + 148
        0x00000398:    e2811003    ....    ADD      r1,r1,#3
        0x0000039c:    e1a00000    ....    MOV      r0,r0
    _memcpy_lastbytes
        0x000003a0:    e1b02f82    ./..    LSLS     r2,r2,#31
        0x000003a4:    24d13001    .0.$    LDRBCS   r3,[r1],#1
        0x000003a8:    24d1c001    ...$    LDRBCS   r12,[r1],#1
        0x000003ac:    44d12001    . .D    LDRBMI   r2,[r1],#1
        0x000003b0:    24c03001    .0.$    STRBCS   r3,[r0],#1
        0x000003b4:    24c0c001    ...$    STRBCS   r12,[r0],#1
        0x000003b8:    44c02001    . .D    STRBMI   r2,[r0],#1
        0x000003bc:    e12fff1e    ../.    BX       lr
    .text
    __aeabi_memclr
    __rt_memclr
        0x000003c0:    e3a02000    . ..    MOV      r2,#0
    _memset
        0x000003c4:    e3510004    ..Q.    CMP      r1,#4
        0x000003c8:    3a000007    ...:    BCC      0x3ec ; _memset + 40
        0x000003cc:    e210c003    ....    ANDS     r12,r0,#3
        0x000003d0:    0a00000b    ....    BEQ      _memset_w ; 0x404
        0x000003d4:    e26cc004    ..l.    RSB      r12,r12,#4
        0x000003d8:    e35c0002    ..\.    CMP      r12,#2
        0x000003dc:    14c02001    . ..    STRBNE   r2,[r0],#1
        0x000003e0:    e041100c    ..A.    SUB      r1,r1,r12
        0x000003e4:    a0c020b2    . ..    STRHGE   r2,[r0],#2
        0x000003e8:    ea000005    ....    B        _memset_w ; 0x404
        0x000003ec:    e1b0cf81    ....    LSLS     r12,r1,#31
        0x000003f0:    24c02001    . .$    STRBCS   r2,[r0],#1
        0x000003f4:    24c02001    . .$    STRBCS   r2,[r0],#1
        0x000003f8:    44c02001    . .D    STRBMI   r2,[r0],#1
        0x000003fc:    e12fff1e    ../.    BX       lr
    .text
    __aeabi_memclr4
    __aeabi_memclr8
    __rt_memclr_w
        0x00000400:    e3a02000    . ..    MOV      r2,#0
    _memset_w
        0x00000404:    e92d4000    .@-.    STMDB    sp!,{lr}
        0x00000408:    e1a03002    .0..    MOV      r3,r2
        0x0000040c:    e1a0c002    ....    MOV      r12,r2
        0x00000410:    e1a0e002    ....    MOV      lr,r2
        0x00000414:    e2511020     .Q.    SUBS     r1,r1,#0x20
        0x00000418:    28a0500c    .P.(    STMCS    r0!,{r2,r3,r12,lr}
        0x0000041c:    28a0500c    .P.(    STMCS    r0!,{r2,r3,r12,lr}
        0x00000420:    22511020     .Q"    SUBSCS   r1,r1,#0x20
        0x00000424:    2afffffb    ...*    BCS      0x418 ; _memset_w + 20
        0x00000428:    e1b01e01    ....    LSLS     r1,r1,#28
        0x0000042c:    28a0500c    .P.(    STMCS    r0!,{r2,r3,r12,lr}
        0x00000430:    48a0000c    ...H    STMMI    r0!,{r2,r3}
        0x00000434:    e8bd4000    .@..    LDM      sp!,{lr}
        0x00000438:    e1b01101    ....    LSLS     r1,r1,#2
        0x0000043c:    24802004    . .$    STRCS    r2,[r0],#4
        0x00000440:    012fff1e    ../.    BXEQ     lr
        0x00000444:    40c020b2    . .@    STRHMI   r2,[r0],#2
        0x00000448:    e3110101    ....    TST      r1,#0x40000000
        0x0000044c:    14c02001    . ..    STRBNE   r2,[r0],#1
        0x00000450:    e12fff1e    ../.    BX       lr
    .text
    __aeabi_idiv
    __aeabi_idivmod
        0x00000454:    e1903001    .0..    ORRS     r3,r0,r1
        0x00000458:    4a000021    !..J    BMI      0x4e4 ; __arm_div2 + 28
        0x0000045c:    e3b02000    . ..    MOVS     r2,#0
        0x00000460:    e07130a0    .0q.    RSBS     r3,r1,r0,LSR #1
        0x00000464:    3a00001a    ...:    BCC      0x4d4 ; __arm_div2 + 12
        0x00000468:    e0713220     2q.    RSBS     r3,r1,r0,LSR #4
        0x0000046c:    3a00000f    ...:    BCC      0x4b0 ; __arm_div5 + 12
        0x00000470:    e0713420     4q.    RSBS     r3,r1,r0,LSR #8
        0x00000474:    3a000001    ...:    BCC      __arm_div8 ; 0x480
        0x00000478:    e3a0c000    ....    MOV      r12,#0
        0x0000047c:    ea000020     ...    B        __arm_div_large ; 0x504
    __arm_div8
        0x00000480:    e07133a0    .3q.    RSBS     r3,r1,r0,LSR #7
        0x00000484:    20400381    ..@     SUBCS    r0,r0,r1,LSL #7
        0x00000488:    e0b22002    . ..    ADCS     r2,r2,r2
        0x0000048c:    e0713320     3q.    RSBS     r3,r1,r0,LSR #6
        0x00000490:    20400301    ..@     SUBCS    r0,r0,r1,LSL #6
        0x00000494:    e0b22002    . ..    ADCS     r2,r2,r2
        0x00000498:    e07132a0    .2q.    RSBS     r3,r1,r0,LSR #5
        0x0000049c:    20400281    ..@     SUBCS    r0,r0,r1,LSL #5
        0x000004a0:    e0b22002    . ..    ADCS     r2,r2,r2
    __arm_div5
        0x000004a4:    e0713220     2q.    RSBS     r3,r1,r0,LSR #4
        0x000004a8:    20400201    ..@     SUBCS    r0,r0,r1,LSL #4
        0x000004ac:    e0b22002    . ..    ADCS     r2,r2,r2
        0x000004b0:    e07131a0    .1q.    RSBS     r3,r1,r0,LSR #3
        0x000004b4:    20400181    ..@     SUBCS    r0,r0,r1,LSL #3
        0x000004b8:    e0b22002    . ..    ADCS     r2,r2,r2
        0x000004bc:    e0713120     1q.    RSBS     r3,r1,r0,LSR #2
        0x000004c0:    20400101    ..@     SUBCS    r0,r0,r1,LSL #2
        0x000004c4:    e0b22002    . ..    ADCS     r2,r2,r2
    __arm_div2
        0x000004c8:    e07130a0    .0q.    RSBS     r3,r1,r0,LSR #1
        0x000004cc:    20400081    ..@     SUBCS    r0,r0,r1,LSL #1
        0x000004d0:    e0b22002    . ..    ADCS     r2,r2,r2
        0x000004d4:    e0501001    ..P.    SUBS     r1,r0,r1
        0x000004d8:    31a01000    ...1    MOVCC    r1,r0
        0x000004dc:    e0a20002    ....    ADC      r0,r2,r2
        0x000004e0:    e12fff1e    ../.    BX       lr
        0x000004e4:    e2112102    .!..    ANDS     r2,r1,#0x80000000
        0x000004e8:    42611000    ..aB    RSBMI    r1,r1,#0
        0x000004ec:    e032c040    @.2.    EORS     r12,r2,r0,ASR #32
        0x000004f0:    22600000    ..`"    RSBCS    r0,r0,#0
        0x000004f4:    e0713220     2q.    RSBS     r3,r1,r0,LSR #4
        0x000004f8:    3a00001d    ...:    BCC      0x574 ; __arm_div_large + 112
        0x000004fc:    e0713420     4q.    RSBS     r3,r1,r0,LSR #8
        0x00000500:    3a00000f    ...:    BCC      0x544 ; __arm_div_large + 64
    __arm_div_large
        0x00000504:    e1a01301    ....    LSL      r1,r1,#6
        0x00000508:    e0713420     4q.    RSBS     r3,r1,r0,LSR #8
        0x0000050c:    e382233f    ?#..    ORR      r2,r2,#0xfc000000
        0x00000510:    3a00000b    ...:    BCC      0x544 ; __arm_div_large + 64
        0x00000514:    e1a01301    ....    LSL      r1,r1,#6
        0x00000518:    e0713420     4q.    RSBS     r3,r1,r0,LSR #8
        0x0000051c:    e382263f    ?&..    ORR      r2,r2,#0x3f00000
        0x00000520:    3a000007    ...:    BCC      0x544 ; __arm_div_large + 64
        0x00000524:    e1a01301    ....    LSL      r1,r1,#6
        0x00000528:    e0713420     4q.    RSBS     r3,r1,r0,LSR #8
        0x0000052c:    e382293f    ?)..    ORR      r2,r2,#0xfc000
        0x00000530:    21a01301    ...!    LSLCS    r1,r1,#6
        0x00000534:    23822c3f    ?,.#    ORRCS    r2,r2,#0x3f00
        0x00000538:    e2713000    .0q.    RSBS     r3,r1,#0
        0x0000053c:    2a00001d    ...*    BCS      0x5b8 ; __arm_div_large + 180
        0x00000540:    21a01321    !..!    LSRCS    r1,r1,#6
        0x00000544:    e07133a0    .3q.    RSBS     r3,r1,r0,LSR #7
        0x00000548:    20400381    ..@     SUBCS    r0,r0,r1,LSL #7
        0x0000054c:    e0b22002    . ..    ADCS     r2,r2,r2
        0x00000550:    e0713320     3q.    RSBS     r3,r1,r0,LSR #6
        0x00000554:    20400301    ..@     SUBCS    r0,r0,r1,LSL #6
        0x00000558:    e0b22002    . ..    ADCS     r2,r2,r2
        0x0000055c:    e07132a0    .2q.    RSBS     r3,r1,r0,LSR #5
        0x00000560:    20400281    ..@     SUBCS    r0,r0,r1,LSL #5
        0x00000564:    e0b22002    . ..    ADCS     r2,r2,r2
        0x00000568:    e0713220     2q.    RSBS     r3,r1,r0,LSR #4
        0x0000056c:    20400201    ..@     SUBCS    r0,r0,r1,LSL #4
        0x00000570:    e0b22002    . ..    ADCS     r2,r2,r2
        0x00000574:    e07131a0    .1q.    RSBS     r3,r1,r0,LSR #3
        0x00000578:    20400181    ..@     SUBCS    r0,r0,r1,LSL #3
        0x0000057c:    e0b22002    . ..    ADCS     r2,r2,r2
        0x00000580:    e0713120     1q.    RSBS     r3,r1,r0,LSR #2
        0x00000584:    20400101    ..@     SUBCS    r0,r0,r1,LSL #2
        0x00000588:    e0b22002    . ..    ADCS     r2,r2,r2
        0x0000058c:    2affffeb    ...*    BCS      0x540 ; __arm_div_large + 60
        0x00000590:    e07130a0    .0q.    RSBS     r3,r1,r0,LSR #1
        0x00000594:    20400081    ..@     SUBCS    r0,r0,r1,LSL #1
        0x00000598:    e0b22002    . ..    ADCS     r2,r2,r2
        0x0000059c:    e0501001    ..P.    SUBS     r1,r0,r1
        0x000005a0:    31a01000    ...1    MOVCC    r1,r0
        0x000005a4:    e0a20002    ....    ADC      r0,r2,r2
        0x000005a8:    e1b0cfcc    ....    ASRS     r12,r12,#31
        0x000005ac:    42600000    ..`B    RSBMI    r0,r0,#0
        0x000005b0:    22611000    ..a"    RSBCS    r1,r1,#0
        0x000005b4:    e12fff1e    ../.    BX       lr
        0x000005b8:    e1b0cfcc    ....    ASRS     r12,r12,#31
        0x000005bc:    42600000    ..`B    RSBMI    r0,r0,#0
        0x000005c0:    e92d4001    .@-.    PUSH     {r0,lr}
        0x000005c4:    e3b00000    ....    MOVS     r0,#0
        0x000005c8:    e1a00000    ....    MOV      r0,r0
        0x000005cc:    e8bd8002    ....    POP      {r1,pc}
    .text
    __rt_heap_descriptor
        0x000005d0:    e59f0000    ....    LDR      r0,[pc,#0] ; [0x5d8] = 0x28210
        0x000005d4:    e12fff1e    ../.    BX       lr
    $d
        0x000005d8:    00028210    ....    DCD    164368
    $t
    .text
    __use_no_heap
        0x000005dc:    4770        pG      BX       lr
    __heap$guard
        0x000005de:    4770        pG      BX       lr
    .text
    _terminate_user_alloc
        0x000005e0:    4770        pG      BX       lr
    _init_user_alloc
        0x000005e2:    4770        pG      BX       lr
    __Heap_Full
        0x000005e4:    b538        8.      PUSH     {r3-r5,lr}
        0x000005e6:    0004        ..      MOVS     r4,r0
        0x000005e8:    000a        ..      MOVS     r2,r1
        0x000005ea:    4669        iF      MOV      r1,sp
        0x000005ec:    2000        .       MOVS     r0,#0
        0x000005ee:    f000f8a1    ....    BL       __rt_heap_expand ; 0x734
        0x000005f2:    2800        .(      CMP      r0,#0
        0x000005f4:    d005        ..      BEQ      0x602 ; __Heap_Full + 30
        0x000005f6:    0002        ..      MOVS     r2,r0
        0x000005f8:    9900        ..      LDR      r1,[sp,#0]
        0x000005fa:    0020         .      MOVS     r0,r4
        0x000005fc:    f000f86e    ..n.    BL       __Heap_ProvideMemory ; 0x6dc
        0x00000600:    2001        .       MOVS     r0,#1
        0x00000602:    bd38        8.      POP      {r3-r5,pc}
    __Heap_Broken
        0x00000604:    b510        ..      PUSH     {r4,lr}
        0x00000606:    2001        .       MOVS     r0,#1
        0x00000608:    f000f882    ....    BL       __rt_SIGRTMEM ; 0x710
        0x0000060c:    bd10        ..      POP      {r4,pc}
    _init_alloc
        0x0000060e:    b5f8        ..      PUSH     {r3-r7,lr}
        0x00000610:    f000f884    ....    BL       __rt_heap_escrow ; 0x71c
        0x00000614:    0005        ..      MOVS     r5,r0
        0x00000616:    000c        ..      MOVS     r4,r1
        0x00000618:    2000        .       MOVS     r0,#0
        0x0000061a:    2010        .       MOVS     r0,#0x10
        0x0000061c:    46c0        .F      MOV      r8,r8
        0x0000061e:    0006        ..      MOVS     r6,r0
        0x00000620:    19a8        ..      ADDS     r0,r5,r6
        0x00000622:    42a0        .B      CMP      r0,r4
        0x00000624:    d90d        ..      BLS      0x642 ; _init_alloc + 52
        0x00000626:    4669        iF      MOV      r1,sp
        0x00000628:    0032        2.      MOVS     r2,r6
        0x0000062a:    2000        .       MOVS     r0,#0
        0x0000062c:    f000f882    ....    BL       __rt_heap_expand ; 0x734
        0x00000630:    0007        ..      MOVS     r7,r0
        0x00000632:    d101        ..      BNE      0x638 ; _init_alloc + 42
        0x00000634:    f000f86c    ..l.    BL       __rt_SIGRTMEM ; 0x710
        0x00000638:    9800        ..      LDR      r0,[sp,#0]
        0x0000063a:    42a0        .B      CMP      r0,r4
        0x0000063c:    d000        ..      BEQ      0x640 ; _init_alloc + 50
        0x0000063e:    0005        ..      MOVS     r5,r0
        0x00000640:    19c4        ..      ADDS     r4,r0,r7
        0x00000642:    f7ffefc6    ....    BLX      __rt_heap_descriptor ; 0x5d0
        0x00000646:    1df6        ..      ADDS     r6,r6,#7
        0x00000648:    0007        ..      MOVS     r7,r0
        0x0000064a:    6005        .`      STR      r5,[r0,#0]
        0x0000064c:    08f0        ..      LSRS     r0,r6,#3
        0x0000064e:    00c0        ..      LSLS     r0,r0,#3
        0x00000650:    1946        F.      ADDS     r6,r0,r5
        0x00000652:    0028        (.      MOVS     r0,r5
        0x00000654:    f000f808    ....    BL       __Heap_Initialize ; 0x668
        0x00000658:    42b4        .B      CMP      r4,r6
        0x0000065a:    d004        ..      BEQ      0x666 ; _init_alloc + 88
        0x0000065c:    6838        8h      LDR      r0,[r7,#0]
        0x0000065e:    1ba2        ..      SUBS     r2,r4,r6
        0x00000660:    0031        1.      MOVS     r1,r6
        0x00000662:    f000f83b    ..;.    BL       __Heap_ProvideMemory ; 0x6dc
        0x00000666:    bdf8        ..      POP      {r3-r7,pc}
    .text
    __Heap_Initialize
        0x00000668:    2100        .!      MOVS     r1,#0
        0x0000066a:    6001        .`      STR      r1,[r0,#0]
        0x0000066c:    6041        A`      STR      r1,[r0,#4]
        0x0000066e:    6080        .`      STR      r0,[r0,#8]
        0x00000670:    4770        pG      BX       lr
    __Heap_DescSize
        0x00000672:    2010        .       MOVS     r0,#0x10
        0x00000674:    4770        pG      BX       lr
        0x00000676:    0000        ..      MOVS     r0,r0
    $a
    .text
    __aeabi_memcpy4
    __aeabi_memcpy8
    __rt_memcpy_w
        0x00000678:    e92d4010    .@-.    PUSH     {r4,lr}
        0x0000067c:    e2522020      R.    SUBS     r2,r2,#0x20
        0x00000680:    3a000005    ...:    BCC      0x69c ; __aeabi_memcpy4 + 36
        0x00000684:    e8b15018    .P..    LDM      r1!,{r3,r4,r12,lr}
        0x00000688:    e2522020      R.    SUBS     r2,r2,#0x20
        0x0000068c:    e8a05018    .P..    STM      r0!,{r3,r4,r12,lr}
        0x00000690:    e8b15018    .P..    LDM      r1!,{r3,r4,r12,lr}
        0x00000694:    e8a05018    .P..    STM      r0!,{r3,r4,r12,lr}
        0x00000698:    2afffff9    ...*    BCS      0x684 ; __aeabi_memcpy4 + 12
        0x0000069c:    e1b0ce02    ....    LSLS     r12,r2,#28
        0x000006a0:    28b15018    .P.(    LDMCS    r1!,{r3,r4,r12,lr}
        0x000006a4:    28a05018    .P.(    STMCS    r0!,{r3,r4,r12,lr}
        0x000006a8:    48b10018    ...H    LDMMI    r1!,{r3,r4}
        0x000006ac:    48a00018    ...H    STMMI    r0!,{r3,r4}
        0x000006b0:    e8bd4010    .@..    POP      {r4,lr}
        0x000006b4:    e1b0cf02    ....    LSLS     r12,r2,#30
        0x000006b8:    24913004    .0.$    LDRCS    r3,[r1],#4
        0x000006bc:    24803004    .0.$    STRCS    r3,[r0],#4
        0x000006c0:    012fff1e    ../.    BXEQ     lr
    _memcpy_lastbytes_aligned
        0x000006c4:    e1b02f82    ./..    LSLS     r2,r2,#31
        0x000006c8:    20d130b2    .0.     LDRHCS   r3,[r1],#2
        0x000006cc:    44d12001    . .D    LDRBMI   r2,[r1],#1
        0x000006d0:    20c030b2    .0.     STRHCS   r3,[r0],#2
        0x000006d4:    44c02001    . .D    STRBMI   r2,[r0],#1
        0x000006d8:    e12fff1e    ../.    BX       lr
    $t
    .text
    __Heap_ProvideMemory
        0x000006dc:    b510        ..      PUSH     {r4,lr}
        0x000006de:    0003        ..      MOVS     r3,r0
        0x000006e0:    6840        @h      LDR      r0,[r0,#4]
        0x000006e2:    e001        ..      B        0x6e8 ; __Heap_ProvideMemory + 12
        0x000006e4:    0003        ..      MOVS     r3,r0
        0x000006e6:    6840        @h      LDR      r0,[r0,#4]
        0x000006e8:    2800        .(      CMP      r0,#0
        0x000006ea:    d001        ..      BEQ      0x6f0 ; __Heap_ProvideMemory + 20
        0x000006ec:    4288        .B      CMP      r0,r1
        0x000006ee:    d3f9        ..      BCC      0x6e4 ; __Heap_ProvideMemory + 8
        0x000006f0:    6818        .h      LDR      r0,[r3,#0]
        0x000006f2:    18c3        ..      ADDS     r3,r0,r3
        0x000006f4:    428b        .B      CMP      r3,r1
        0x000006f6:    d006        ..      BEQ      0x706 ; __Heap_ProvideMemory + 42
        0x000006f8:    1ccb        ..      ADDS     r3,r1,#3
        0x000006fa:    08d8        ..      LSRS     r0,r3,#3
        0x000006fc:    00c0        ..      LSLS     r0,r0,#3
        0x000006fe:    1d00        ..      ADDS     r0,r0,#4
        0x00000700:    1a41        A.      SUBS     r1,r0,r1
        0x00000702:    1a52        R.      SUBS     r2,r2,r1
        0x00000704:    0001        ..      MOVS     r1,r0
        0x00000706:    1d08        ..      ADDS     r0,r1,#4
        0x00000708:    600a        .`      STR      r2,[r1,#0]
        0x0000070a:    f7fffda6    ....    BL       free ; 0x25a
        0x0000070e:    bd10        ..      POP      {r4,pc}
    .text
    __rt_SIGRTMEM
        0x00000710:    b510        ..      PUSH     {r4,lr}
        0x00000712:    f000f839    ..9.    BL       __rt_SIGRTMEM_inner ; 0x788
        0x00000716:    f000f831    ..1.    BL       __sig_exit ; 0x77c
        0x0000071a:    bd10        ..      POP      {r4,pc}
    .text
    __rt_heap_escrow
        0x0000071c:    2201        ."      MOVS     r2,#1
        0x0000071e:    4669        iF      MOV      r1,sp
        0x00000720:    4b11        .K      LDR      r3,[pc,#68] ; [0x768] = 0x3e78
        0x00000722:    0312        ..      LSLS     r2,r2,#12
        0x00000724:    1882        ..      ADDS     r2,r0,r2
        0x00000726:    428a        .B      CMP      r2,r1
        0x00000728:    601a        .`      STR      r2,[r3,#0]
        0x0000072a:    d801        ..      BHI      0x730 ; __rt_heap_escrow + 20
        0x0000072c:    0011        ..      MOVS     r1,r2
        0x0000072e:    4770        pG      BX       lr
        0x00000730:    6019        .`      STR      r1,[r3,#0]
        0x00000732:    4770        pG      BX       lr
    __rt_heap_expand
        0x00000734:    b570        p.      PUSH     {r4-r6,lr}
        0x00000736:    4c0c        .L      LDR      r4,[pc,#48] ; [0x768] = 0x3e78
        0x00000738:    466d        mF      MOV      r5,sp
        0x0000073a:    2601        .&      MOVS     r6,#1
        0x0000073c:    0336        6.      LSLS     r6,r6,#12
        0x0000073e:    6823        #h      LDR      r3,[r4,#0]
        0x00000740:    1bad        ..      SUBS     r5,r5,r6
        0x00000742:    189a        ..      ADDS     r2,r3,r2
        0x00000744:    42aa        .B      CMP      r2,r5
        0x00000746:    d80e        ..      BHI      0x766 ; __rt_heap_expand + 50
        0x00000748:    1aad        ..      SUBS     r5,r5,r2
        0x0000074a:    1990        ..      ADDS     r0,r2,r6
        0x0000074c:    0fee        ..      LSRS     r6,r5,#31
        0x0000074e:    1975        u.      ADDS     r5,r6,r5
        0x00000750:    106d        m.      ASRS     r5,r5,#1
        0x00000752:    18aa        ..      ADDS     r2,r5,r2
        0x00000754:    4290        .B      CMP      r0,r2
        0x00000756:    d900        ..      BLS      0x75a ; __rt_heap_expand + 38
        0x00000758:    0010        ..      MOVS     r0,r2
        0x0000075a:    1dc0        ..      ADDS     r0,r0,#7
        0x0000075c:    600b        .`      STR      r3,[r1,#0]
        0x0000075e:    08c2        ..      LSRS     r2,r0,#3
        0x00000760:    00d2        ..      LSLS     r2,r2,#3
        0x00000762:    1ad0        ..      SUBS     r0,r2,r3
        0x00000764:    6022        "`      STR      r2,[r4,#0]
        0x00000766:    bd70        p.      POP      {r4-r6,pc}
    $d
        0x00000768:    00003e78    x>..    DCD    15992
    $t
    .text
    exit
        0x0000076c:    b510        ..      PUSH     {r4,lr}
        0x0000076e:    0004        ..      MOVS     r4,r0
        0x00000770:    46c0        .F      MOV      r8,r8
        0x00000772:    46c0        .F      MOV      r8,r8
        0x00000774:    0020         .      MOVS     r0,r4
        0x00000776:    f7ffed38    ..8.    BLX      __rt_exit ; 0x1e8
        0x0000077a:    bd10        ..      POP      {r4,pc}
    .text
    __sig_exit
        0x0000077c:    b510        ..      PUSH     {r4,lr}
        0x0000077e:    2800        .(      CMP      r0,#0
        0x00000780:    d001        ..      BEQ      0x786 ; __sig_exit + 10
        0x00000782:    f000ea46    ..F.    BLX      _sys_exit ; 0xc10
        0x00000786:    bd10        ..      POP      {r4,pc}
    .text
    __rt_SIGRTMEM_inner
        0x00000788:    b510        ..      PUSH     {r4,lr}
        0x0000078a:    2801        .(      CMP      r0,#1
        0x0000078c:    d005        ..      BEQ      0x79a ; __rt_SIGRTMEM_inner + 18
        0x0000078e:    2100        .!      MOVS     r1,#0
        0x00000790:    a003        ..      ADR      r0,{pc}+0x10 ; 0x7a0
        0x00000792:    f000f821    ..!.    BL       __default_signal_display ; 0x7d8
        0x00000796:    2001        .       MOVS     r0,#1
        0x00000798:    bd10        ..      POP      {r4,pc}
        0x0000079a:    a109        ..      ADR      r1,{pc}+0x26 ; 0x7c0
        0x0000079c:    e7f8        ..      B        0x790 ; __rt_SIGRTMEM_inner + 8
    $d
        0x0000079e:    0000        ..      DCW    0
        0x000007a0:    52474953    SIGR    DCD    1380403539
        0x000007a4:    4d454d54    TMEM    DCD    1296387412
        0x000007a8:    754f203a    : Ou    DCD    1968119866
        0x000007ac:    666f2074    t of    DCD    1718558836
        0x000007b0:    61656820     hea    DCD    1634035744
        0x000007b4:    656d2070    p me    DCD    1701650544
        0x000007b8:    79726f6d    mory    DCD    2037542765
        0x000007bc:    00000000    ....    DCD    0
        0x000007c0:    6548203a    : He    DCD    1699225658
        0x000007c4:    6d207061    ap m    DCD    1830842465
        0x000007c8:    726f6d65    emor    DCD    1919905125
        0x000007cc:    6f632079    y co    DCD    1868767353
        0x000007d0:    70757272    rrup    DCD    1886745202
        0x000007d4:    00646574    ted.    DCD    6579572
    $t
    .text
    __default_signal_display
        0x000007d8:    b570        p.      PUSH     {r4-r6,lr}
        0x000007da:    000c        ..      MOVS     r4,r1
        0x000007dc:    0005        ..      MOVS     r5,r0
        0x000007de:    200a        .       MOVS     r0,#0xa
        0x000007e0:    e000        ..      B        0x7e4 ; __default_signal_display + 12
        0x000007e2:    1c6d        m.      ADDS     r5,r5,#1
        0x000007e4:    f000ea18    ....    BLX      _ttywrch ; 0xc18
        0x000007e8:    2d00        .-      CMP      r5,#0
        0x000007ea:    d006        ..      BEQ      0x7fa ; __default_signal_display + 34
        0x000007ec:    7828        (x      LDRB     r0,[r5,#0]
        0x000007ee:    2800        .(      CMP      r0,#0
        0x000007f0:    d1f7        ..      BNE      0x7e2 ; __default_signal_display + 10
        0x000007f2:    e002        ..      B        0x7fa ; __default_signal_display + 34
        0x000007f4:    1c64        d.      ADDS     r4,r4,#1
        0x000007f6:    f000ea10    ....    BLX      _ttywrch ; 0xc18
        0x000007fa:    2c00        .,      CMP      r4,#0
        0x000007fc:    d002        ..      BEQ      0x804 ; __default_signal_display + 44
        0x000007fe:    7820         x      LDRB     r0,[r4,#0]
        0x00000800:    2800        .(      CMP      r0,#0
        0x00000802:    d1f7        ..      BNE      0x7f4 ; __default_signal_display + 28
        0x00000804:    200a        .       MOVS     r0,#0xa
        0x00000806:    f000ea08    ....    BLX      _ttywrch ; 0xc18
        0x0000080a:    bd70        p.      POP      {r4-r6,pc}
    $a
    .text_udiv
    __aeabi_uidiv
    __aeabi_uidivmod
        0x0000080c:    e3b02000    . ..    MOVS     r2,#0
        0x00000810:    e0713120     1q.    RSBS     r3,r1,r0,LSR #2
        0x00000814:    3affff2b    +..:    BCC      __arm_div2 ; 0x4c8
        0x00000818:    e07132a0    .2q.    RSBS     r3,r1,r0,LSR #5
        0x0000081c:    3affff20     ..:    BCC      __arm_div5 ; 0x4a4
        0x00000820:    e0713420     4q.    RSBS     r3,r1,r0,LSR #8
        0x00000824:    3affff15    ...:    BCC      __arm_div8 ; 0x480
        0x00000828:    e3a0c000    ....    MOV      r12,#0
        0x0000082c:    eaffff34    4...    B        __arm_div_large ; 0x504
    SYS_INIT
    sysSetupCP15
        0x00000830:    e1a01000    ....    MOV      r1,r0
        0x00000834:    ee021f10    ....    MCR      p15,#0x0,r1,c2,c0,#0
        0x00000838:    e3a01101    ....    MOV      r1,#0x40000000
        0x0000083c:    ee031f10    ....    MCR      p15,#0x0,r1,c3,c0,#0
        0x00000840:    ee111f10    ....    MRC      p15,#0x0,r1,c1,c0,#0
        0x00000844:    e3811a01    ....    ORR      r1,r1,#0x1000
        0x00000848:    e3811005    ....    ORR      r1,r1,#5
        0x0000084c:    ee011f10    ....    MCR      p15,#0x0,r1,c1,c0,#0
        0x00000850:    e12fff1e    ../.    BX       lr
    sys_flush_and_clean_dcache
        0x00000854:    ee17ff7e    ~...    MRC      p15,#0x0,APSR_nzcv,c7,c14,#3
        0x00000858:    1afffffd    ....    BNE      sys_flush_and_clean_dcache ; 0x854
        0x0000085c:    e12fff1e    ../.    BX       lr
    i.FormatItem
    FormatItem
        0x00000860:    e92d5ff0    ._-.    PUSH     {r4-r12,lr}
        0x00000864:    e1a06000    .`..    MOV      r6,r0
        0x00000868:    e1a08001    ....    MOV      r8,r1
        0x0000086c:    e3a04000    .@..    MOV      r4,#0
        0x00000870:    e3a07000    .p..    MOV      r7,#0
        0x00000874:    e3a09000    ....    MOV      r9,#0
        0x00000878:    e3a0a020     ...    MOV      r10,#0x20
        0x0000087c:    e5d60000    ....    LDRB     r0,[r6,#0]
        0x00000880:    e3500030    0.P.    CMP      r0,#0x30
        0x00000884:    1a000000    ....    BNE      0x88c ; FormatItem + 44
        0x00000888:    e3a0a030    0...    MOV      r10,#0x30
        0x0000088c:    ea000070    p...    B        0xa54 ; FormatItem + 500
        0x00000890:    e3550030    0.U.    CMP      r5,#0x30
        0x00000894:    ba000005    ....    BLT      0x8b0 ; FormatItem + 80
        0x00000898:    e3550039    9.U.    CMP      r5,#0x39
        0x0000089c:    ca000003    ....    BGT      0x8b0 ; FormatItem + 80
        0x000008a0:    e2450030    0.E.    SUB      r0,r5,#0x30
        0x000008a4:    e0841104    ....    ADD      r1,r4,r4,LSL #2
        0x000008a8:    e0804081    .@..    ADD      r4,r0,r1,LSL #1
        0x000008ac:    ea000064    d...    B        0xa44 ; FormatItem + 484
        0x000008b0:    e355006c    l.U.    CMP      r5,#0x6c
        0x000008b4:    1a000000    ....    BNE      0x8bc ; FormatItem + 92
        0x000008b8:    ea000065    e...    B        0xa54 ; FormatItem + 500
        0x000008bc:    e3550064    d.U.    CMP      r5,#0x64
        0x000008c0:    0a00004b    K...    BEQ      0x9f4 ; FormatItem + 404
        0x000008c4:    ca00000c    ....    BGT      0x8fc ; FormatItem + 156
        0x000008c8:    e355002d    -.U.    CMP      r5,#0x2d
        0x000008cc:    0a000020     ...    BEQ      0x954 ; FormatItem + 244
        0x000008d0:    ca000004    ....    BGT      0x8e8 ; FormatItem + 136
        0x000008d4:    e3550000    ..U.    CMP      r5,#0
        0x000008d8:    0a000014    ....    BEQ      0x930 ; FormatItem + 208
        0x000008dc:    e3550025    %.U.    CMP      r5,#0x25
        0x000008e0:    1a000053    S...    BNE      0xa34 ; FormatItem + 468
        0x000008e4:    ea000015    ....    B        0x940 ; FormatItem + 224
        0x000008e8:    e3550058    X.U.    CMP      r5,#0x58
        0x000008ec:    0a00004a    J...    BEQ      0xa1c ; FormatItem + 444
        0x000008f0:    e3550063    c.U.    CMP      r5,#0x63
        0x000008f4:    1a00004e    N...    BNE      0xa34 ; FormatItem + 468
        0x000008f8:    ea000018    ....    B        0x960 ; FormatItem + 256
        0x000008fc:    e3550073    s.U.    CMP      r5,#0x73
        0x00000900:    0a000026    &...    BEQ      0x9a0 ; FormatItem + 320
        0x00000904:    ca000004    ....    BGT      0x91c ; FormatItem + 188
        0x00000908:    e3550069    i.U.    CMP      r5,#0x69
        0x0000090c:    0a00003a    :...    BEQ      0x9fc ; FormatItem + 412
        0x00000910:    e355006f    o.U.    CMP      r5,#0x6f
        0x00000914:    1a000046    F...    BNE      0xa34 ; FormatItem + 468
        0x00000918:    ea000042    B...    B        0xa28 ; FormatItem + 456
        0x0000091c:    e3550075    u.U.    CMP      r5,#0x75
        0x00000920:    0a000037    7...    BEQ      0xa04 ; FormatItem + 420
        0x00000924:    e3550078    x.U.    CMP      r5,#0x78
        0x00000928:    1a000041    A...    BNE      0xa34 ; FormatItem + 468
        0x0000092c:    ea000037    7...    B        0xa10 ; FormatItem + 432
        0x00000930:    e1a00000    ....    MOV      r0,r0
        0x00000934:    e2460001    ..F.    SUB      r0,r6,#1
        0x00000938:    e1a06000    .`..    MOV      r6,r0
        0x0000093c:    e8bd9ff0    ....    POP      {r4-r12,pc}
        0x00000940:    e1a00000    ....    MOV      r0,r0
        0x00000944:    e3a00025    %...    MOV      r0,#0x25
        0x00000948:    eb000090    ....    BL       _PutChar_f ; 0xb90
        0x0000094c:    e1a00006    ....    MOV      r0,r6
        0x00000950:    eafffff9    ....    B        0x93c ; FormatItem + 220
        0x00000954:    e1a00000    ....    MOV      r0,r0
        0x00000958:    e3a07001    .p..    MOV      r7,#1
        0x0000095c:    ea000037    7...    B        0xa40 ; FormatItem + 480
        0x00000960:    e1a00000    ....    MOV      r0,r0
        0x00000964:    e3570000    ..W.    CMP      r7,#0
        0x00000968:    0a000001    ....    BEQ      0x974 ; FormatItem + 276
        0x0000096c:    e208007f    ....    AND      r0,r8,#0x7f
        0x00000970:    eb000086    ....    BL       _PutChar_f ; 0xb90
        0x00000974:    e3540000    ..T.    CMP      r4,#0
        0x00000978:    da000002    ....    BLE      0x988 ; FormatItem + 296
        0x0000097c:    e2441001    ..D.    SUB      r1,r4,#1
        0x00000980:    e1a0000a    ....    MOV      r0,r10
        0x00000984:    eb0006fd    ....    BL       sysPutRepChar ; 0x2580
        0x00000988:    e3570000    ..W.    CMP      r7,#0
        0x0000098c:    1a000001    ....    BNE      0x998 ; FormatItem + 312
        0x00000990:    e208007f    ....    AND      r0,r8,#0x7f
        0x00000994:    eb00007d    }...    BL       _PutChar_f ; 0xb90
        0x00000998:    e1a00006    ....    MOV      r0,r6
        0x0000099c:    eaffffe6    ....    B        0x93c ; FormatItem + 220
        0x000009a0:    e1a00000    ....    MOV      r0,r0
        0x000009a4:    e3570000    ..W.    CMP      r7,#0
        0x000009a8:    0a000001    ....    BEQ      0x9b4 ; FormatItem + 340
        0x000009ac:    e1a00008    ....    MOV      r0,r8
        0x000009b0:    eb0006fc    ....    BL       sysPutString ; 0x25a8
        0x000009b4:    e1a00008    ....    MOV      r0,r8
        0x000009b8:    fafffe3a    :...    BLX      strlen ; 0x2a8
        0x000009bc:    e1500004    ..P.    CMP      r0,r4
        0x000009c0:    2a000005    ...*    BCS      0x9dc ; FormatItem + 380
        0x000009c4:    e1a00008    ....    MOV      r0,r8
        0x000009c8:    fafffe36    6...    BLX      strlen ; 0x2a8
        0x000009cc:    e044b000    ..D.    SUB      r11,r4,r0
        0x000009d0:    e1a0100b    ....    MOV      r1,r11
        0x000009d4:    e1a0000a    ....    MOV      r0,r10
        0x000009d8:    eb0006e8    ....    BL       sysPutRepChar ; 0x2580
        0x000009dc:    e3570000    ..W.    CMP      r7,#0
        0x000009e0:    1a000001    ....    BNE      0x9ec ; FormatItem + 396
        0x000009e4:    e1a00008    ....    MOV      r0,r8
        0x000009e8:    eb0006ee    ....    BL       sysPutString ; 0x25a8
        0x000009ec:    e1a00006    ....    MOV      r0,r6
        0x000009f0:    eaffffd1    ....    B        0x93c ; FormatItem + 220
        0x000009f4:    e1a00000    ....    MOV      r0,r0
        0x000009f8:    e1a00000    ....    MOV      r0,r0
        0x000009fc:    e3e09009    ....    MVN      r9,#9
        0x00000a00:    ea00000e    ....    B        0xa40 ; FormatItem + 480
        0x00000a04:    e1a00000    ....    MOV      r0,r0
        0x00000a08:    e3a0900a    ....    MOV      r9,#0xa
        0x00000a0c:    ea00000b    ....    B        0xa40 ; FormatItem + 480
        0x00000a10:    e1a00000    ....    MOV      r0,r0
        0x00000a14:    e3a09010    ....    MOV      r9,#0x10
        0x00000a18:    ea000008    ....    B        0xa40 ; FormatItem + 480
        0x00000a1c:    e1a00000    ....    MOV      r0,r0
        0x00000a20:    e3a09010    ....    MOV      r9,#0x10
        0x00000a24:    ea000005    ....    B        0xa40 ; FormatItem + 480
        0x00000a28:    e1a00000    ....    MOV      r0,r0
        0x00000a2c:    e3a09008    ....    MOV      r9,#8
        0x00000a30:    ea000002    ....    B        0xa40 ; FormatItem + 480
        0x00000a34:    e1a00000    ....    MOV      r0,r0
        0x00000a38:    e3a09003    ....    MOV      r9,#3
        0x00000a3c:    e1a00000    ....    MOV      r0,r0
        0x00000a40:    e1a00000    ....    MOV      r0,r0
        0x00000a44:    e3590000    ..Y.    CMP      r9,#0
        0x00000a48:    0a000000    ....    BEQ      0xa50 ; FormatItem + 496
        0x00000a4c:    ea000003    ....    B        0xa60 ; FormatItem + 512
        0x00000a50:    e1a00000    ....    MOV      r0,r0
        0x00000a54:    e4d65001    .P..    LDRB     r5,[r6],#1
        0x00000a58:    e3550000    ..U.    CMP      r5,#0
        0x00000a5c:    1affff8b    ....    BNE      0x890 ; FormatItem + 48
        0x00000a60:    e1a00000    ....    MOV      r0,r0
        0x00000a64:    e3570000    ..W.    CMP      r7,#0
        0x00000a68:    0a000000    ....    BEQ      0xa70 ; FormatItem + 528
        0x00000a6c:    e2644000    .@d.    RSB      r4,r4,#0
        0x00000a70:    e1a0300a    .0..    MOV      r3,r10
        0x00000a74:    e1a02004    . ..    MOV      r2,r4
        0x00000a78:    e1a01009    ....    MOV      r1,r9
        0x00000a7c:    e1a00008    ....    MOV      r0,r8
        0x00000a80:    eb00064e    N...    BL       sysPutNumber ; 0x23c0
        0x00000a84:    e1a00006    ....    MOV      r0,r6
        0x00000a88:    eaffffab    ....    B        0x93c ; FormatItem + 220
    i.RS485_HANDLE
    RS485_HANDLE
        0x00000a8c:    e92d401c    .@-.    PUSH     {r2-r4,lr}
        0x00000a90:    e1a04000    .@..    MOV      r4,r0
        0x00000a94:    e1a00404    ....    LSL      r0,r4,#8
        0x00000a98:    e280032e    ....    ADD      r0,r0,#0xb8000000
        0x00000a9c:    e590001c    ....    LDR      r0,[r0,#0x1c]
        0x00000aa0:    e58d0004    ....    STR      r0,[sp,#4]
        0x00000aa4:    e1a00404    ....    LSL      r0,r4,#8
        0x00000aa8:    e280032e    ....    ADD      r0,r0,#0xb8000000
        0x00000aac:    e5900018    ....    LDR      r0,[r0,#0x18]
        0x00000ab0:    e58d0000    ....    STR      r0,[sp,#0]
        0x00000ab4:    e59d0004    ....    LDR      r0,[sp,#4]
        0x00000ab8:    e2000004    ....    AND      r0,r0,#4
        0x00000abc:    e3500000    ..P.    CMP      r0,#0
        0x00000ac0:    0a00000e    ....    BEQ      0xb00 ; RS485_HANDLE + 116
        0x00000ac4:    e59d0004    ....    LDR      r0,[sp,#4]
        0x00000ac8:    e2000001    ....    AND      r0,r0,#1
        0x00000acc:    e3500000    ..P.    CMP      r0,#0
        0x00000ad0:    0a00000a    ....    BEQ      0xb00 ; RS485_HANDLE + 116
        0x00000ad4:    e59d0000    ....    LDR      r0,[sp,#0]
        0x00000ad8:    e2000008    ....    AND      r0,r0,#8
        0x00000adc:    e3500000    ..P.    CMP      r0,#0
        0x00000ae0:    0a00000c    ....    BEQ      0xb18 ; RS485_HANDLE + 140
        0x00000ae4:    e1a00004    ....    MOV      r0,r4
        0x00000ae8:    eb0002c0    ....    BL       _uartReceiveChars ; 0x15f0
        0x00000aec:    e3a00008    ....    MOV      r0,#8
        0x00000af0:    e1a01404    ....    LSL      r1,r4,#8
        0x00000af4:    e281132e    ....    ADD      r1,r1,#0xb8000000
        0x00000af8:    e5810018    ....    STR      r0,[r1,#0x18]
        0x00000afc:    ea000005    ....    B        0xb18 ; RS485_HANDLE + 140
        0x00000b00:    e59d0004    ....    LDR      r0,[sp,#4]
        0x00000b04:    e2000011    ....    AND      r0,r0,#0x11
        0x00000b08:    e3500000    ..P.    CMP      r0,#0
        0x00000b0c:    0a000001    ....    BEQ      0xb18 ; RS485_HANDLE + 140
        0x00000b10:    e1a00004    ....    MOV      r0,r4
        0x00000b14:    eb0002b5    ....    BL       _uartReceiveChars ; 0x15f0
        0x00000b18:    e59d0004    ....    LDR      r0,[sp,#4]
        0x00000b1c:    e2000004    ....    AND      r0,r0,#4
        0x00000b20:    e3500000    ..P.    CMP      r0,#0
        0x00000b24:    0a00000a    ....    BEQ      0xb54 ; RS485_HANDLE + 200
        0x00000b28:    e1a00404    ....    LSL      r0,r4,#8
        0x00000b2c:    e280032e    ....    ADD      r0,r0,#0xb8000000
        0x00000b30:    e5900018    ....    LDR      r0,[r0,#0x18]
        0x00000b34:    e58d0000    ....    STR      r0,[sp,#0]
        0x00000b38:    e59d0000    ....    LDR      r0,[sp,#0]
        0x00000b3c:    e2000040    @...    AND      r0,r0,#0x40
        0x00000b40:    e3500000    ..P.    CMP      r0,#0
        0x00000b44:    0a000002    ....    BEQ      0xb54 ; RS485_HANDLE + 200
        0x00000b48:    e3a00001    ....    MOV      r0,#1
        0x00000b4c:    e59f1004    ....    LDR      r1,[pc,#4] ; [0xb58] = 0x3e5b
        0x00000b50:    e5c10000    ....    STRB     r0,[r1,#0]
        0x00000b54:    e8bd801c    ....    POP      {r2-r4,pc}
    $d
        0x00000b58:    00003e5b    [>..    DCD    15963
    $a
    i.SYS_Interrupt_Shell
    SYS_Interrupt_Shell
        0x00000b5c:    e92d4010    .@-.    PUSH     {r4,lr}
        0x00000b60:    e59f000c    ....    LDR      r0,[pc,#12] ; [0xb74] = 0xb8002000
        0x00000b64:    e5901120     ...    LDR      r1,[r0,#0x120]
        0x00000b68:    e28f0008    ....    ADR      r0,{pc}+0x10 ; 0xb78
        0x00000b6c:    eb0006ca    ....    BL       sysprintf ; 0x269c
        0x00000b70:    e8bd8010    ....    POP      {r4,pc}
    $d
        0x00000b74:    b8002000    . ..    DCD    3087015936
        0x00000b78:    20525349    ISR     DCD    542266185
        0x00000b7c:    20746f6e    not     DCD    544501614
        0x00000b80:    6e756f66    foun    DCD    1853189990
        0x00000b84:    49202164    d! I    DCD    1226842468
        0x00000b88:    3d524e53    SNR=    DCD    1028804179
        0x00000b8c:    000a6425    %d..    DCD    680997
    $a
    i._PutChar_f
    _PutChar_f
        0x00000b90:    e1a00000    ....    MOV      r0,r0
        0x00000b94:    e3a0132e    ....    MOV      r1,#0xb8000000
        0x00000b98:    e5911018    ....    LDR      r1,[r1,#0x18]
        0x00000b9c:    e2011502    ....    AND      r1,r1,#0x800000
        0x00000ba0:    e3510000    ..Q.    CMP      r1,#0
        0x00000ba4:    1afffffa    ....    BNE      0xb94 ; _PutChar_f + 4
        0x00000ba8:    e3a0132e    ....    MOV      r1,#0xb8000000
        0x00000bac:    e5810000    ....    STR      r0,[r1,#0]
        0x00000bb0:    e350000a    ..P.    CMP      r0,#0xa
        0x00000bb4:    1a000008    ....    BNE      0xbdc ; _PutChar_f + 76
        0x00000bb8:    e1a00000    ....    MOV      r0,r0
        0x00000bbc:    e3a0132e    ....    MOV      r1,#0xb8000000
        0x00000bc0:    e5911018    ....    LDR      r1,[r1,#0x18]
        0x00000bc4:    e2011502    ....    AND      r1,r1,#0x800000
        0x00000bc8:    e3510000    ..Q.    CMP      r1,#0
        0x00000bcc:    1afffffa    ....    BNE      0xbbc ; _PutChar_f + 44
        0x00000bd0:    e3a0100d    ....    MOV      r1,#0xd
        0x00000bd4:    e3a0232e    .#..    MOV      r2,#0xb8000000
        0x00000bd8:    e5821000    ....    STR      r1,[r2,#0]
        0x00000bdc:    e12fff1e    ../.    BX       lr
    i.__user_setup_stackheap
    __user_setup_stackheap
        0x00000be0:    e92d407f    .@-.    PUSH     {r0-r6,lr}
        0x00000be4:    e1a04000    .@..    MOV      r4,r0
        0x00000be8:    e1a0c001    ....    MOV      r12,r1
        0x00000bec:    e1a05002    .P..    MOV      r5,r2
        0x00000bf0:    e1a06003    .`..    MOV      r6,r3
        0x00000bf4:    e59f0010    ....    LDR      r0,[pc,#16] ; [0xc0c] = 0x28214
        0x00000bf8:    e58d0000    ....    STR      r0,[sp,#0]
        0x00000bfc:    e58dc004    ....    STR      r12,[sp,#4]
        0x00000c00:    e89d000f    ....    LDM      sp,{r0-r3}
        0x00000c04:    e28dd010    ....    ADD      sp,sp,#0x10
        0x00000c08:    e8bd8070    p...    POP      {r4-r6,pc}
    $d
        0x00000c0c:    00028214    ....    DCD    164372
    $a
    i._sys_exit
    _sys_exit
        0x00000c10:    e1a00000    ....    MOV      r0,r0
        0x00000c14:    eafffffe    ....    B        0xc14 ; _sys_exit + 4
    i._ttywrch
    _ttywrch
        0x00000c18:    e20010ff    ....    AND      r1,r0,#0xff
        0x00000c1c:    e12fff1e    ../.    BX       lr
    i._uartBUFSpaceAlloc
    _uartBUFSpaceAlloc
        0x00000c20:    e92d4070    p@-.    PUSH     {r4-r6,lr}
        0x00000c24:    e1a05000    .P..    MOV      r5,r0
        0x00000c28:    e0850085    ....    ADD      r0,r5,r5,LSL #1
        0x00000c2c:    e59f10d8    ....    LDR      r1,[pc,#216] ; [0xd0c] = 0x28000
        0x00000c30:    e0814200    .B..    ADD      r4,r1,r0,LSL #4
        0x00000c34:    e59f10d4    ....    LDR      r1,[pc,#212] ; [0xd10] = 0x3df0
        0x00000c38:    e7910105    ....    LDR      r0,[r1,r5,LSL #2]
        0x00000c3c:    fafffd6d    m...    BLX      _maybe_terminate_alloc ; 0x1f8
        0x00000c40:    e5840010    ....    STR      r0,[r4,#0x10]
        0x00000c44:    e5940010    ....    LDR      r0,[r4,#0x10]
        0x00000c48:    e3500000    ..P.    CMP      r0,#0
        0x00000c4c:    1a000001    ....    BNE      0xc58 ; _uartBUFSpaceAlloc + 56
        0x00000c50:    e3a00000    ....    MOV      r0,#0
        0x00000c54:    e8bd8070    p...    POP      {r4-r6,pc}
        0x00000c58:    e59f10b4    ....    LDR      r1,[pc,#180] ; [0xd14] = 0x3e1c
        0x00000c5c:    e7910105    ....    LDR      r0,[r1,r5,LSL #2]
        0x00000c60:    fafffd64    d...    BLX      _maybe_terminate_alloc ; 0x1f8
        0x00000c64:    e5840014    ....    STR      r0,[r4,#0x14]
        0x00000c68:    e5940014    ....    LDR      r0,[r4,#0x14]
        0x00000c6c:    e3500000    ..P.    CMP      r0,#0
        0x00000c70:    1a000003    ....    BNE      0xc84 ; _uartBUFSpaceAlloc + 100
        0x00000c74:    e5940010    ....    LDR      r0,[r4,#0x10]
        0x00000c78:    fbfffd76    v...    BLX      free ; 0x25a
        0x00000c7c:    e3a00000    ....    MOV      r0,#0
        0x00000c80:    eafffff3    ....    B        0xc54 ; _uartBUFSpaceAlloc + 52
        0x00000c84:    e59f1088    ....    LDR      r1,[pc,#136] ; [0xd14] = 0x3e1c
        0x00000c88:    e7911105    ....    LDR      r1,[r1,r5,LSL #2]
        0x00000c8c:    e1a00101    ....    LSL      r0,r1,#2
        0x00000c90:    fafffd58    X...    BLX      _maybe_terminate_alloc ; 0x1f8
        0x00000c94:    e5840020     ...    STR      r0,[r4,#0x20]
        0x00000c98:    e5940020     ...    LDR      r0,[r4,#0x20]
        0x00000c9c:    e3500000    ..P.    CMP      r0,#0
        0x00000ca0:    1a000005    ....    BNE      0xcbc ; _uartBUFSpaceAlloc + 156
        0x00000ca4:    e5940010    ....    LDR      r0,[r4,#0x10]
        0x00000ca8:    fbfffd6a    j...    BLX      free ; 0x25a
        0x00000cac:    e5940014    ....    LDR      r0,[r4,#0x14]
        0x00000cb0:    fbfffd68    h...    BLX      free ; 0x25a
        0x00000cb4:    e3a00000    ....    MOV      r0,#0
        0x00000cb8:    eaffffe5    ....    B        0xc54 ; _uartBUFSpaceAlloc + 52
        0x00000cbc:    e59f204c    L ..    LDR      r2,[pc,#76] ; [0xd10] = 0x3df0
        0x00000cc0:    e7921105    ....    LDR      r1,[r2,r5,LSL #2]
        0x00000cc4:    e5940010    ....    LDR      r0,[r4,#0x10]
        0x00000cc8:    ebfffdbc    ....    BL       __aeabi_memclr ; 0x3c0
        0x00000ccc:    e59f2040    @ ..    LDR      r2,[pc,#64] ; [0xd14] = 0x3e1c
        0x00000cd0:    e7921105    ....    LDR      r1,[r2,r5,LSL #2]
        0x00000cd4:    e5940014    ....    LDR      r0,[r4,#0x14]
        0x00000cd8:    ebfffdb8    ....    BL       __aeabi_memclr ; 0x3c0
        0x00000cdc:    e59f2030    0 ..    LDR      r2,[pc,#48] ; [0xd14] = 0x3e1c
        0x00000ce0:    e7922105    .!..    LDR      r2,[r2,r5,LSL #2]
        0x00000ce4:    e1a01102    ....    LSL      r1,r2,#2
        0x00000ce8:    e5940020     ...    LDR      r0,[r4,#0x20]
        0x00000cec:    ebfffdc3    ....    BL       __aeabi_memclr4 ; 0x400
        0x00000cf0:    e3a00000    ....    MOV      r0,#0
        0x00000cf4:    e5840004    ....    STR      r0,[r4,#4]
        0x00000cf8:    e5840000    ....    STR      r0,[r4,#0]
        0x00000cfc:    e584000c    ....    STR      r0,[r4,#0xc]
        0x00000d00:    e5840008    ....    STR      r0,[r4,#8]
        0x00000d04:    e3a00001    ....    MOV      r0,#1
        0x00000d08:    eaffffd1    ....    B        0xc54 ; _uartBUFSpaceAlloc + 52
    $d
        0x00000d0c:    00028000    ....    DCD    163840
        0x00000d10:    00003df0    .=..    DCD    15856
        0x00000d14:    00003e1c    .>..    DCD    15900
    $a
    i._uartCheckModemStatus
    _uartCheckModemStatus
        0x00000d18:    e92d40f8    .@-.    PUSH     {r3-r7,lr}
        0x00000d1c:    e1a04000    .@..    MOV      r4,r0
        0x00000d20:    e1a06404    .d..    LSL      r6,r4,#8
        0x00000d24:    e0840084    ....    ADD      r0,r4,r4,LSL #1
        0x00000d28:    e59f1084    ....    LDR      r1,[pc,#132] ; [0xdb4] = 0x28000
        0x00000d2c:    e0815200    .R..    ADD      r5,r1,r0,LSL #4
        0x00000d30:    e286032e    ....    ADD      r0,r6,#0xb8000000
        0x00000d34:    e5900014    ....    LDR      r0,[r0,#0x14]
        0x00000d38:    e58d0000    ....    STR      r0,[sp,#0]
        0x00000d3c:    e59f0074    t...    LDR      r0,[pc,#116] ; [0xdb8] = 0x3e72
        0x00000d40:    e5d00000    ....    LDRB     r0,[r0,#0]
        0x00000d44:    e3500000    ..P.    CMP      r0,#0
        0x00000d48:    0a00000e    ....    BEQ      0xd88 ; _uartCheckModemStatus + 112
        0x00000d4c:    e59d0000    ....    LDR      r0,[sp,#0]
        0x00000d50:    e2000010    ....    AND      r0,r0,#0x10
        0x00000d54:    e3500000    ..P.    CMP      r0,#0
        0x00000d58:    1a000014    ....    BNE      0xdb0 ; _uartCheckModemStatus + 152
        0x00000d5c:    e3a00000    ....    MOV      r0,#0
        0x00000d60:    e59f1050    P...    LDR      r1,[pc,#80] ; [0xdb8] = 0x3e72
        0x00000d64:    e5c10000    ....    STRB     r0,[r1,#0]
        0x00000d68:    e5950000    ....    LDR      r0,[r5,#0]
        0x00000d6c:    e5951004    ....    LDR      r1,[r5,#4]
        0x00000d70:    e1500001    ..P.    CMP      r0,r1
        0x00000d74:    0a00000d    ....    BEQ      0xdb0 ; _uartCheckModemStatus + 152
        0x00000d78:    e3a01002    ....    MOV      r1,#2
        0x00000d7c:    e1a00004    ....    MOV      r0,r4
        0x00000d80:    eb0000d4    ....    BL       _uartEnableInterrupt ; 0x10d8
        0x00000d84:    ea000009    ....    B        0xdb0 ; _uartCheckModemStatus + 152
        0x00000d88:    e59d0000    ....    LDR      r0,[sp,#0]
        0x00000d8c:    e2000010    ....    AND      r0,r0,#0x10
        0x00000d90:    e3500000    ..P.    CMP      r0,#0
        0x00000d94:    1a000005    ....    BNE      0xdb0 ; _uartCheckModemStatus + 152
        0x00000d98:    e3a00001    ....    MOV      r0,#1
        0x00000d9c:    e59f1014    ....    LDR      r1,[pc,#20] ; [0xdb8] = 0x3e72
        0x00000da0:    e5c10000    ....    STRB     r0,[r1,#0]
        0x00000da4:    e3a01002    ....    MOV      r1,#2
        0x00000da8:    e1a00004    ....    MOV      r0,r4
        0x00000dac:    eb0000b9    ....    BL       _uartDisableInterrupt ; 0x1098
        0x00000db0:    e8bd80f8    ....    POP      {r3-r7,pc}
    $d
        0x00000db4:    00028000    ....    DCD    163840
        0x00000db8:    00003e72    r>..    DCD    15986
    $a
    i._uartConfigureUART
    _uartConfigureUART
        0x00000dbc:    e92d47f0    .G-.    PUSH     {r4-r10,lr}
        0x00000dc0:    e1a06000    .`..    MOV      r6,r0
        0x00000dc4:    e3a0a000    ....    MOV      r10,#0
        0x00000dc8:    e1a04006    .@..    MOV      r4,r6
        0x00000dcc:    e5d40008    ....    LDRB     r0,[r4,#8]
        0x00000dd0:    e1a05400    .T..    LSL      r5,r0,#8
        0x00000dd4:    e5d4a008    ....    LDRB     r10,[r4,#8]
        0x00000dd8:    e35a000a    ..Z.    CMP      r10,#0xa
        0x00000ddc:    9a000001    ....    BLS      0xde8 ; _uartConfigureUART + 44
        0x00000de0:    e3e00004    ....    MVN      r0,#4
        0x00000de4:    e8bd87f0    ....    POP      {r4-r10,pc}
        0x00000de8:    e5d4000b    ....    LDRB     r0,[r4,#0xb]
        0x00000dec:    e3500000    ..P.    CMP      r0,#0
        0x00000df0:    0a00000d    ....    BEQ      0xe2c ; _uartConfigureUART + 112
        0x00000df4:    e5d4000b    ....    LDRB     r0,[r4,#0xb]
        0x00000df8:    e3500018    ..P.    CMP      r0,#0x18
        0x00000dfc:    0a00000a    ....    BEQ      0xe2c ; _uartConfigureUART + 112
        0x00000e00:    e5d4000b    ....    LDRB     r0,[r4,#0xb]
        0x00000e04:    e3500008    ..P.    CMP      r0,#8
        0x00000e08:    0a000007    ....    BEQ      0xe2c ; _uartConfigureUART + 112
        0x00000e0c:    e5d4000b    ....    LDRB     r0,[r4,#0xb]
        0x00000e10:    e3500048    H.P.    CMP      r0,#0x48
        0x00000e14:    0a000004    ....    BEQ      0xe2c ; _uartConfigureUART + 112
        0x00000e18:    e5d4000b    ....    LDRB     r0,[r4,#0xb]
        0x00000e1c:    e3500058    X.P.    CMP      r0,#0x58
        0x00000e20:    0a000001    ....    BEQ      0xe2c ; _uartConfigureUART + 112
        0x00000e24:    e3e00000    ....    MVN      r0,#0
        0x00000e28:    eaffffed    ....    B        0xde4 ; _uartConfigureUART + 40
        0x00000e2c:    e5d40009    ....    LDRB     r0,[r4,#9]
        0x00000e30:    e3500000    ..P.    CMP      r0,#0
        0x00000e34:    0a00000a    ....    BEQ      0xe64 ; _uartConfigureUART + 168
        0x00000e38:    e5d40009    ....    LDRB     r0,[r4,#9]
        0x00000e3c:    e3500001    ..P.    CMP      r0,#1
        0x00000e40:    0a000007    ....    BEQ      0xe64 ; _uartConfigureUART + 168
        0x00000e44:    e5d40009    ....    LDRB     r0,[r4,#9]
        0x00000e48:    e3500002    ..P.    CMP      r0,#2
        0x00000e4c:    0a000004    ....    BEQ      0xe64 ; _uartConfigureUART + 168
        0x00000e50:    e5d40009    ....    LDRB     r0,[r4,#9]
        0x00000e54:    e3500003    ..P.    CMP      r0,#3
        0x00000e58:    0a000001    ....    BEQ      0xe64 ; _uartConfigureUART + 168
        0x00000e5c:    e3e00001    ....    MVN      r0,#1
        0x00000e60:    eaffffdf    ....    B        0xde4 ; _uartConfigureUART + 40
        0x00000e64:    e5d4000a    ....    LDRB     r0,[r4,#0xa]
        0x00000e68:    e3500000    ..P.    CMP      r0,#0
        0x00000e6c:    0a000004    ....    BEQ      0xe84 ; _uartConfigureUART + 200
        0x00000e70:    e5d4000a    ....    LDRB     r0,[r4,#0xa]
        0x00000e74:    e3500004    ..P.    CMP      r0,#4
        0x00000e78:    0a000001    ....    BEQ      0xe84 ; _uartConfigureUART + 200
        0x00000e7c:    e3e00002    ....    MVN      r0,#2
        0x00000e80:    eaffffd7    ....    B        0xde4 ; _uartConfigureUART + 40
        0x00000e84:    e5d40008    ....    LDRB     r0,[r4,#8]
        0x00000e88:    e3500001    ..P.    CMP      r0,#1
        0x00000e8c:    0a00000e    ....    BEQ      0xecc ; _uartConfigureUART + 272
        0x00000e90:    e5d40008    ....    LDRB     r0,[r4,#8]
        0x00000e94:    e3500002    ..P.    CMP      r0,#2
        0x00000e98:    0a00000b    ....    BEQ      0xecc ; _uartConfigureUART + 272
        0x00000e9c:    e5d40008    ....    LDRB     r0,[r4,#8]
        0x00000ea0:    e3500004    ..P.    CMP      r0,#4
        0x00000ea4:    0a000008    ....    BEQ      0xecc ; _uartConfigureUART + 272
        0x00000ea8:    e5d40008    ....    LDRB     r0,[r4,#8]
        0x00000eac:    e3500006    ..P.    CMP      r0,#6
        0x00000eb0:    0a000005    ....    BEQ      0xecc ; _uartConfigureUART + 272
        0x00000eb4:    e5d40008    ....    LDRB     r0,[r4,#8]
        0x00000eb8:    e3500008    ..P.    CMP      r0,#8
        0x00000ebc:    0a000002    ....    BEQ      0xecc ; _uartConfigureUART + 272
        0x00000ec0:    e5d40008    ....    LDRB     r0,[r4,#8]
        0x00000ec4:    e350000a    ..P.    CMP      r0,#0xa
        0x00000ec8:    1a000016    ....    BNE      0xf28 ; _uartConfigureUART + 364
        0x00000ecc:    e5d4000c    ....    LDRB     r0,[r4,#0xc]
        0x00000ed0:    e3500000    ..P.    CMP      r0,#0
        0x00000ed4:    0a000021    !...    BEQ      0xf60 ; _uartConfigureUART + 420
        0x00000ed8:    e5d4000c    ....    LDRB     r0,[r4,#0xc]
        0x00000edc:    e3500010    ..P.    CMP      r0,#0x10
        0x00000ee0:    0a00001e    ....    BEQ      0xf60 ; _uartConfigureUART + 420
        0x00000ee4:    e5d4000c    ....    LDRB     r0,[r4,#0xc]
        0x00000ee8:    e3500020     .P.    CMP      r0,#0x20
        0x00000eec:    0a00001b    ....    BEQ      0xf60 ; _uartConfigureUART + 420
        0x00000ef0:    e5d4000c    ....    LDRB     r0,[r4,#0xc]
        0x00000ef4:    e3500030    0.P.    CMP      r0,#0x30
        0x00000ef8:    0a000018    ....    BEQ      0xf60 ; _uartConfigureUART + 420
        0x00000efc:    e5d4000c    ....    LDRB     r0,[r4,#0xc]
        0x00000f00:    e3500040    @.P.    CMP      r0,#0x40
        0x00000f04:    0a000015    ....    BEQ      0xf60 ; _uartConfigureUART + 420
        0x00000f08:    e5d4000c    ....    LDRB     r0,[r4,#0xc]
        0x00000f0c:    e3500050    P.P.    CMP      r0,#0x50
        0x00000f10:    0a000012    ....    BEQ      0xf60 ; _uartConfigureUART + 420
        0x00000f14:    e5d4000c    ....    LDRB     r0,[r4,#0xc]
        0x00000f18:    e3500060    `.P.    CMP      r0,#0x60
        0x00000f1c:    0a00000f    ....    BEQ      0xf60 ; _uartConfigureUART + 420
        0x00000f20:    e3e00003    ....    MVN      r0,#3
        0x00000f24:    eaffffae    ....    B        0xde4 ; _uartConfigureUART + 40
        0x00000f28:    e5d4000c    ....    LDRB     r0,[r4,#0xc]
        0x00000f2c:    e3500000    ..P.    CMP      r0,#0
        0x00000f30:    0a00000a    ....    BEQ      0xf60 ; _uartConfigureUART + 420
        0x00000f34:    e5d4000c    ....    LDRB     r0,[r4,#0xc]
        0x00000f38:    e3500010    ..P.    CMP      r0,#0x10
        0x00000f3c:    0a000007    ....    BEQ      0xf60 ; _uartConfigureUART + 420
        0x00000f40:    e5d4000c    ....    LDRB     r0,[r4,#0xc]
        0x00000f44:    e3500020     .P.    CMP      r0,#0x20
        0x00000f48:    0a000004    ....    BEQ      0xf60 ; _uartConfigureUART + 420
        0x00000f4c:    e5d4000c    ....    LDRB     r0,[r4,#0xc]
        0x00000f50:    e3500040    @.P.    CMP      r0,#0x40
        0x00000f54:    0a000001    ....    BEQ      0xf60 ; _uartConfigureUART + 420
        0x00000f58:    e3e00003    ....    MVN      r0,#3
        0x00000f5c:    eaffffa0    ....    B        0xde4 ; _uartConfigureUART + 40
        0x00000f60:    e5d40008    ....    LDRB     r0,[r4,#8]
        0x00000f64:    e350000b    ..P.    CMP      r0,#0xb
        0x00000f68:    aa000007    ....    BGE      0xf8c ; _uartConfigureUART + 464
        0x00000f6c:    e3a0020b    ....    MOV      r0,#0xb0000000
        0x00000f70:    e5900218    ....    LDR      r0,[r0,#0x218]
        0x00000f74:    e5d41008    ....    LDRB     r1,[r4,#8]
        0x00000f78:    e2811010    ....    ADD      r1,r1,#0x10
        0x00000f7c:    e3a02001    . ..    MOV      r2,#1
        0x00000f80:    e1800112    ....    ORR      r0,r0,r2,LSL r1
        0x00000f84:    e3a0120b    ....    MOV      r1,#0xb0000000
        0x00000f88:    e5810218    ....    STR      r0,[r1,#0x218]
        0x00000f8c:    e285032e    ....    ADD      r0,r5,#0xb8000000
        0x00000f90:    e5909008    ....    LDR      r9,[r0,#8]
        0x00000f94:    e3890006    ....    ORR      r0,r9,#6
        0x00000f98:    e285132e    ....    ADD      r1,r5,#0xb8000000
        0x00000f9c:    e5810008    ....    STR      r0,[r1,#8]
        0x00000fa0:    e5d40008    ....    LDRB     r0,[r4,#8]
        0x00000fa4:    e1a01004    ....    MOV      r1,r4
        0x00000fa8:    eb000258    X...    BL       _uartSetBaudRate ; 0x1910
        0x00000fac:    e1a07000    .p..    MOV      r7,r0
        0x00000fb0:    e3570000    ..W.    CMP      r7,#0
        0x00000fb4:    aa000001    ....    BGE      0xfc0 ; _uartConfigureUART + 516
        0x00000fb8:    e3e0000c    ....    MVN      r0,#0xc
        0x00000fbc:    eaffff88    ....    B        0xde4 ; _uartConfigureUART + 40
        0x00000fc0:    e5d4000b    ....    LDRB     r0,[r4,#0xb]
        0x00000fc4:    e5d41009    ....    LDRB     r1,[r4,#9]
        0x00000fc8:    e1800001    ....    ORR      r0,r0,r1
        0x00000fcc:    e5d4100a    ....    LDRB     r1,[r4,#0xa]
        0x00000fd0:    e1800001    ....    ORR      r0,r0,r1
        0x00000fd4:    e285132e    ....    ADD      r1,r5,#0xb8000000
        0x00000fd8:    e581000c    ....    STR      r0,[r1,#0xc]
        0x00000fdc:    e3a000a0    ....    MOV      r0,#0xa0
        0x00000fe0:    e285132e    ....    ADD      r1,r5,#0xb8000000
        0x00000fe4:    e5810020     ...    STR      r0,[r1,#0x20]
        0x00000fe8:    e5d4000c    ....    LDRB     r0,[r4,#0xc]
        0x00000fec:    e285132e    ....    ADD      r1,r5,#0xb8000000
        0x00000ff0:    e5810008    ....    STR      r0,[r1,#8]
        0x00000ff4:    e5d40008    ....    LDRB     r0,[r4,#8]
        0x00000ff8:    e0800080    ....    ADD      r0,r0,r0,LSL #1
        0x00000ffc:    e59f1090    ....    LDR      r1,[pc,#144] ; [0x1094] = 0x28000
        0x00001000:    e0810200    ....    ADD      r0,r1,r0,LSL #4
        0x00001004:    e5d0001e    ....    LDRB     r0,[r0,#0x1e]
        0x00001008:    e3500000    ..P.    CMP      r0,#0
        0x0000100c:    1a000018    ....    BNE      0x1074 ; _uartConfigureUART + 696
        0x00001010:    e5d40008    ....    LDRB     r0,[r4,#8]
        0x00001014:    ebffff01    ....    BL       _uartBUFSpaceAlloc ; 0xc20
        0x00001018:    e1a08000    ....    MOV      r8,r0
        0x0000101c:    e3580000    ..X.    CMP      r8,#0
        0x00001020:    1a000001    ....    BNE      0x102c ; _uartConfigureUART + 624
        0x00001024:    e3e00005    ....    MVN      r0,#5
        0x00001028:    eaffff6d    m...    B        0xde4 ; _uartConfigureUART + 40
        0x0000102c:    e5d40008    ....    LDRB     r0,[r4,#8]
        0x00001030:    eb0000c7    ....    BL       _uartInstallISR ; 0x1354
        0x00001034:    e5d40008    ....    LDRB     r0,[r4,#8]
        0x00001038:    e0800080    ....    ADD      r0,r0,r0,LSL #1
        0x0000103c:    e59f1050    P...    LDR      r1,[pc,#80] ; [0x1094] = 0x28000
        0x00001040:    e0810200    ....    ADD      r0,r1,r0,LSL #4
        0x00001044:    e5d0001d    ....    LDRB     r0,[r0,#0x1d]
        0x00001048:    e3500001    ..P.    CMP      r0,#1
        0x0000104c:    1a000002    ....    BNE      0x105c ; _uartConfigureUART + 672
        0x00001050:    e5d40008    ....    LDRB     r0,[r4,#8]
        0x00001054:    e3a01001    ....    MOV      r1,#1
        0x00001058:    eb00001e    ....    BL       _uartEnableInterrupt ; 0x10d8
        0x0000105c:    e3a00000    ....    MOV      r0,#0
        0x00001060:    e5d41008    ....    LDRB     r1,[r4,#8]
        0x00001064:    e0811081    ....    ADD      r1,r1,r1,LSL #1
        0x00001068:    e59f2024    $ ..    LDR      r2,[pc,#36] ; [0x1094] = 0x28000
        0x0000106c:    e0821201    ....    ADD      r1,r2,r1,LSL #4
        0x00001070:    e5810028    (...    STR      r0,[r1,#0x28]
        0x00001074:    e3a00001    ....    MOV      r0,#1
        0x00001078:    e5d41008    ....    LDRB     r1,[r4,#8]
        0x0000107c:    e0811081    ....    ADD      r1,r1,r1,LSL #1
        0x00001080:    e59f200c    . ..    LDR      r2,[pc,#12] ; [0x1094] = 0x28000
        0x00001084:    e0821201    ....    ADD      r1,r2,r1,LSL #4
        0x00001088:    e5c1001e    ....    STRB     r0,[r1,#0x1e]
        0x0000108c:    e3a00000    ....    MOV      r0,#0
        0x00001090:    eaffff53    S...    B        0xde4 ; _uartConfigureUART + 40
    $d
        0x00001094:    00028000    ....    DCD    163840
    $a
    i._uartDisableInterrupt
    _uartDisableInterrupt
        0x00001098:    e3a02000    . ..    MOV      r2,#0
        0x0000109c:    e3510000    ..Q.    CMP      r1,#0
        0x000010a0:    1a000004    ....    BNE      0x10b8 ; _uartDisableInterrupt + 32
        0x000010a4:    e3a03000    .0..    MOV      r3,#0
        0x000010a8:    e1a0c400    ....    LSL      r12,r0,#8
        0x000010ac:    e28cc32e    ....    ADD      r12,r12,#0xb8000000
        0x000010b0:    e58c3004    .0..    STR      r3,[r12,#4]
        0x000010b4:    ea000006    ....    B        0x10d4 ; _uartDisableInterrupt + 60
        0x000010b8:    e1a03400    .4..    LSL      r3,r0,#8
        0x000010bc:    e283332e    .3..    ADD      r3,r3,#0xb8000000
        0x000010c0:    e5932004    . ..    LDR      r2,[r3,#4]
        0x000010c4:    e1c22001    . ..    BIC      r2,r2,r1
        0x000010c8:    e1a03400    .4..    LSL      r3,r0,#8
        0x000010cc:    e283332e    .3..    ADD      r3,r3,#0xb8000000
        0x000010d0:    e5832004    . ..    STR      r2,[r3,#4]
        0x000010d4:    e12fff1e    ../.    BX       lr
    i._uartEnableInterrupt
    _uartEnableInterrupt
        0x000010d8:    e3a02000    . ..    MOV      r2,#0
        0x000010dc:    e1a03400    .4..    LSL      r3,r0,#8
        0x000010e0:    e283332e    .3..    ADD      r3,r3,#0xb8000000
        0x000010e4:    e5932004    . ..    LDR      r2,[r3,#4]
        0x000010e8:    e1822001    . ..    ORR      r2,r2,r1
        0x000010ec:    e1a03400    .4..    LSL      r3,r0,#8
        0x000010f0:    e283332e    .3..    ADD      r3,r3,#0xb8000000
        0x000010f4:    e5832004    . ..    STR      r2,[r3,#4]
        0x000010f8:    e12fff1e    ../.    BX       lr
    i._uartGetRegisterValue
    _uartGetRegisterValue
        0x000010fc:    e92d41f0    .A-.    PUSH     {r4-r8,lr}
        0x00001100:    e1a08000    ....    MOV      r8,r0
        0x00001104:    e1a04001    .@..    MOV      r4,r1
        0x00001108:    e3a05000    .P..    MOV      r5,#0
        0x0000110c:    e1a07408    .t..    LSL      r7,r8,#8
        0x00001110:    e1a06004    .`..    MOV      r6,r4
        0x00001114:    e3a01070    p...    MOV      r1,#0x70
        0x00001118:    e1a00006    ....    MOV      r0,r6
        0x0000111c:    ebfffcb7    ....    BL       __aeabi_memclr4 ; 0x400
        0x00001120:    e3e003ee    ....    MVN      r0,#0xb8000003
        0x00001124:    e0470000    ..G.    SUB      r0,r7,r0
        0x00001128:    e7860185    ....    STR      r0,[r6,r5,LSL #3]
        0x0000112c:    e287032e    ....    ADD      r0,r7,#0xb8000000
        0x00001130:    e5901004    ....    LDR      r1,[r0,#4]
        0x00001134:    e1a00005    ....    MOV      r0,r5
        0x00001138:    e2855001    .P..    ADD      r5,r5,#1
        0x0000113c:    e0860180    ....    ADD      r0,r6,r0,LSL #3
        0x00001140:    e5801004    ....    STR      r1,[r0,#4]
        0x00001144:    e59f01d4    ....    LDR      r0,[pc,#468] ; [0x1320] = 0xb8000008
        0x00001148:    e0800007    ....    ADD      r0,r0,r7
        0x0000114c:    e7860185    ....    STR      r0,[r6,r5,LSL #3]
        0x00001150:    e287032e    ....    ADD      r0,r7,#0xb8000000
        0x00001154:    e5901008    ....    LDR      r1,[r0,#8]
        0x00001158:    e1a00005    ....    MOV      r0,r5
        0x0000115c:    e2855001    .P..    ADD      r5,r5,#1
        0x00001160:    e0860180    ....    ADD      r0,r6,r0,LSL #3
        0x00001164:    e5801004    ....    STR      r1,[r0,#4]
        0x00001168:    e59f01b4    ....    LDR      r0,[pc,#436] ; [0x1324] = 0xb800000c
        0x0000116c:    e0800007    ....    ADD      r0,r0,r7
        0x00001170:    e7860185    ....    STR      r0,[r6,r5,LSL #3]
        0x00001174:    e287032e    ....    ADD      r0,r7,#0xb8000000
        0x00001178:    e590100c    ....    LDR      r1,[r0,#0xc]
        0x0000117c:    e1a00005    ....    MOV      r0,r5
        0x00001180:    e2855001    .P..    ADD      r5,r5,#1
        0x00001184:    e0860180    ....    ADD      r0,r6,r0,LSL #3
        0x00001188:    e5801004    ....    STR      r1,[r0,#4]
        0x0000118c:    e59f0194    ....    LDR      r0,[pc,#404] ; [0x1328] = 0xb8000010
        0x00001190:    e0800007    ....    ADD      r0,r0,r7
        0x00001194:    e7860185    ....    STR      r0,[r6,r5,LSL #3]
        0x00001198:    e287032e    ....    ADD      r0,r7,#0xb8000000
        0x0000119c:    e5901010    ....    LDR      r1,[r0,#0x10]
        0x000011a0:    e1a00005    ....    MOV      r0,r5
        0x000011a4:    e2855001    .P..    ADD      r5,r5,#1
        0x000011a8:    e0860180    ....    ADD      r0,r6,r0,LSL #3
        0x000011ac:    e5801004    ....    STR      r1,[r0,#4]
        0x000011b0:    e59f0174    t...    LDR      r0,[pc,#372] ; [0x132c] = 0xb8000014
        0x000011b4:    e0800007    ....    ADD      r0,r0,r7
        0x000011b8:    e7860185    ....    STR      r0,[r6,r5,LSL #3]
        0x000011bc:    e287032e    ....    ADD      r0,r7,#0xb8000000
        0x000011c0:    e5901014    ....    LDR      r1,[r0,#0x14]
        0x000011c4:    e1a00005    ....    MOV      r0,r5
        0x000011c8:    e2855001    .P..    ADD      r5,r5,#1
        0x000011cc:    e0860180    ....    ADD      r0,r6,r0,LSL #3
        0x000011d0:    e5801004    ....    STR      r1,[r0,#4]
        0x000011d4:    e59f0154    T...    LDR      r0,[pc,#340] ; [0x1330] = 0xb8000018
        0x000011d8:    e0800007    ....    ADD      r0,r0,r7
        0x000011dc:    e7860185    ....    STR      r0,[r6,r5,LSL #3]
        0x000011e0:    e287032e    ....    ADD      r0,r7,#0xb8000000
        0x000011e4:    e5901018    ....    LDR      r1,[r0,#0x18]
        0x000011e8:    e1a00005    ....    MOV      r0,r5
        0x000011ec:    e2855001    .P..    ADD      r5,r5,#1
        0x000011f0:    e0860180    ....    ADD      r0,r6,r0,LSL #3
        0x000011f4:    e5801004    ....    STR      r1,[r0,#4]
        0x000011f8:    e59f0134    4...    LDR      r0,[pc,#308] ; [0x1334] = 0xb800001c
        0x000011fc:    e0800007    ....    ADD      r0,r0,r7
        0x00001200:    e7860185    ....    STR      r0,[r6,r5,LSL #3]
        0x00001204:    e287032e    ....    ADD      r0,r7,#0xb8000000
        0x00001208:    e590101c    ....    LDR      r1,[r0,#0x1c]
        0x0000120c:    e1a00005    ....    MOV      r0,r5
        0x00001210:    e2855001    .P..    ADD      r5,r5,#1
        0x00001214:    e0860180    ....    ADD      r0,r6,r0,LSL #3
        0x00001218:    e5801004    ....    STR      r1,[r0,#4]
        0x0000121c:    e59f0114    ....    LDR      r0,[pc,#276] ; [0x1338] = 0xb8000020
        0x00001220:    e0800007    ....    ADD      r0,r0,r7
        0x00001224:    e7860185    ....    STR      r0,[r6,r5,LSL #3]
        0x00001228:    e287032e    ....    ADD      r0,r7,#0xb8000000
        0x0000122c:    e5901020     ...    LDR      r1,[r0,#0x20]
        0x00001230:    e1a00005    ....    MOV      r0,r5
        0x00001234:    e2855001    .P..    ADD      r5,r5,#1
        0x00001238:    e0860180    ....    ADD      r0,r6,r0,LSL #3
        0x0000123c:    e5801004    ....    STR      r1,[r0,#4]
        0x00001240:    e59f00f4    ....    LDR      r0,[pc,#244] ; [0x133c] = 0xb8000024
        0x00001244:    e0800007    ....    ADD      r0,r0,r7
        0x00001248:    e7860185    ....    STR      r0,[r6,r5,LSL #3]
        0x0000124c:    e287032e    ....    ADD      r0,r7,#0xb8000000
        0x00001250:    e5901024    $...    LDR      r1,[r0,#0x24]
        0x00001254:    e1a00005    ....    MOV      r0,r5
        0x00001258:    e2855001    .P..    ADD      r5,r5,#1
        0x0000125c:    e0860180    ....    ADD      r0,r6,r0,LSL #3
        0x00001260:    e5801004    ....    STR      r1,[r0,#4]
        0x00001264:    e59f00d4    ....    LDR      r0,[pc,#212] ; [0x1340] = 0xb8000028
        0x00001268:    e0800007    ....    ADD      r0,r0,r7
        0x0000126c:    e7860185    ....    STR      r0,[r6,r5,LSL #3]
        0x00001270:    e287032e    ....    ADD      r0,r7,#0xb8000000
        0x00001274:    e5901028    (...    LDR      r1,[r0,#0x28]
        0x00001278:    e1a00005    ....    MOV      r0,r5
        0x0000127c:    e2855001    .P..    ADD      r5,r5,#1
        0x00001280:    e0860180    ....    ADD      r0,r6,r0,LSL #3
        0x00001284:    e5801004    ....    STR      r1,[r0,#4]
        0x00001288:    e59f00b4    ....    LDR      r0,[pc,#180] ; [0x1344] = 0xb800002c
        0x0000128c:    e0800007    ....    ADD      r0,r0,r7
        0x00001290:    e7860185    ....    STR      r0,[r6,r5,LSL #3]
        0x00001294:    e287032e    ....    ADD      r0,r7,#0xb8000000
        0x00001298:    e590102c    ,...    LDR      r1,[r0,#0x2c]
        0x0000129c:    e1a00005    ....    MOV      r0,r5
        0x000012a0:    e2855001    .P..    ADD      r5,r5,#1
        0x000012a4:    e0860180    ....    ADD      r0,r6,r0,LSL #3
        0x000012a8:    e5801004    ....    STR      r1,[r0,#4]
        0x000012ac:    e59f0094    ....    LDR      r0,[pc,#148] ; [0x1348] = 0xb8000030
        0x000012b0:    e0800007    ....    ADD      r0,r0,r7
        0x000012b4:    e7860185    ....    STR      r0,[r6,r5,LSL #3]
        0x000012b8:    e287032e    ....    ADD      r0,r7,#0xb8000000
        0x000012bc:    e5901030    0...    LDR      r1,[r0,#0x30]
        0x000012c0:    e1a00005    ....    MOV      r0,r5
        0x000012c4:    e2855001    .P..    ADD      r5,r5,#1
        0x000012c8:    e0860180    ....    ADD      r0,r6,r0,LSL #3
        0x000012cc:    e5801004    ....    STR      r1,[r0,#4]
        0x000012d0:    e59f0074    t...    LDR      r0,[pc,#116] ; [0x134c] = 0xb8000034
        0x000012d4:    e0800007    ....    ADD      r0,r0,r7
        0x000012d8:    e7860185    ....    STR      r0,[r6,r5,LSL #3]
        0x000012dc:    e287032e    ....    ADD      r0,r7,#0xb8000000
        0x000012e0:    e5901034    4...    LDR      r1,[r0,#0x34]
        0x000012e4:    e1a00005    ....    MOV      r0,r5
        0x000012e8:    e2855001    .P..    ADD      r5,r5,#1
        0x000012ec:    e0860180    ....    ADD      r0,r6,r0,LSL #3
        0x000012f0:    e5801004    ....    STR      r1,[r0,#4]
        0x000012f4:    e59f0054    T...    LDR      r0,[pc,#84] ; [0x1350] = 0xb8000038
        0x000012f8:    e0800007    ....    ADD      r0,r0,r7
        0x000012fc:    e7860185    ....    STR      r0,[r6,r5,LSL #3]
        0x00001300:    e287032e    ....    ADD      r0,r7,#0xb8000000
        0x00001304:    e5901038    8...    LDR      r1,[r0,#0x38]
        0x00001308:    e1a00005    ....    MOV      r0,r5
        0x0000130c:    e2855001    .P..    ADD      r5,r5,#1
        0x00001310:    e0860180    ....    ADD      r0,r6,r0,LSL #3
        0x00001314:    e5801004    ....    STR      r1,[r0,#4]
        0x00001318:    e1a00005    ....    MOV      r0,r5
        0x0000131c:    e8bd81f0    ....    POP      {r4-r8,pc}
    $d
        0x00001320:    b8000008    ....    DCD    3087007752
        0x00001324:    b800000c    ....    DCD    3087007756
        0x00001328:    b8000010    ....    DCD    3087007760
        0x0000132c:    b8000014    ....    DCD    3087007764
        0x00001330:    b8000018    ....    DCD    3087007768
        0x00001334:    b800001c    ....    DCD    3087007772
        0x00001338:    b8000020     ...    DCD    3087007776
        0x0000133c:    b8000024    $...    DCD    3087007780
        0x00001340:    b8000028    (...    DCD    3087007784
        0x00001344:    b800002c    ,...    DCD    3087007788
        0x00001348:    b8000030    0...    DCD    3087007792
        0x0000134c:    b8000034    4...    DCD    3087007796
        0x00001350:    b8000038    8...    DCD    3087007800
    $a
    i._uartInstallISR
    _uartInstallISR
        0x00001354:    e92d4070    p@-.    PUSH     {r4-r6,lr}
        0x00001358:    e1a04000    .@..    MOV      r4,r0
        0x0000135c:    e0840084    ....    ADD      r0,r4,r4,LSL #1
        0x00001360:    e59f11a8    ....    LDR      r1,[pc,#424] ; [0x1510] = 0x28000
        0x00001364:    e0816200    .b..    ADD      r6,r1,r0,LSL #4
        0x00001368:    e3540000    ..T.    CMP      r4,#0
        0x0000136c:    1a000006    ....    BNE      0x138c ; _uartInstallISR + 56
        0x00001370:    e3a05024    $P..    MOV      r5,#0x24
        0x00001374:    e59f2198    .!..    LDR      r2,[pc,#408] ; [0x1514] = 0x270c
        0x00001378:    e1a01005    ....    MOV      r1,r5
        0x0000137c:    e3a00041    A...    MOV      r0,#0x41
        0x00001380:    eb0003c2    ....    BL       sysInstallISR ; 0x2290
        0x00001384:    e5860018    ....    STR      r0,[r6,#0x18]
        0x00001388:    ea00005a    Z...    B        0x14f8 ; _uartInstallISR + 420
        0x0000138c:    e3540001    ..T.    CMP      r4,#1
        0x00001390:    1a000006    ....    BNE      0x13b0 ; _uartInstallISR + 92
        0x00001394:    e3a05025    %P..    MOV      r5,#0x25
        0x00001398:    e59f2178    x!..    LDR      r2,[pc,#376] ; [0x1518] = 0x28a8
        0x0000139c:    e1a01005    ....    MOV      r1,r5
        0x000013a0:    e3a00041    A...    MOV      r0,#0x41
        0x000013a4:    eb0003b9    ....    BL       sysInstallISR ; 0x2290
        0x000013a8:    e5860018    ....    STR      r0,[r6,#0x18]
        0x000013ac:    ea000051    Q...    B        0x14f8 ; _uartInstallISR + 420
        0x000013b0:    e3540002    ..T.    CMP      r4,#2
        0x000013b4:    1a000006    ....    BNE      0x13d4 ; _uartInstallISR + 128
        0x000013b8:    e3a05026    &P..    MOV      r5,#0x26
        0x000013bc:    e59f2158    X!..    LDR      r2,[pc,#344] ; [0x151c] = 0x2a2c
        0x000013c0:    e1a01005    ....    MOV      r1,r5
        0x000013c4:    e3a00041    A...    MOV      r0,#0x41
        0x000013c8:    eb0003b0    ....    BL       sysInstallISR ; 0x2290
        0x000013cc:    e5860018    ....    STR      r0,[r6,#0x18]
        0x000013d0:    ea000048    H...    B        0x14f8 ; _uartInstallISR + 420
        0x000013d4:    e3540003    ..T.    CMP      r4,#3
        0x000013d8:    1a000006    ....    BNE      0x13f8 ; _uartInstallISR + 164
        0x000013dc:    e3a0502b    +P..    MOV      r5,#0x2b
        0x000013e0:    e59f2138    8!..    LDR      r2,[pc,#312] ; [0x1520] = 0x2b6c
        0x000013e4:    e1a01005    ....    MOV      r1,r5
        0x000013e8:    e3a00041    A...    MOV      r0,#0x41
        0x000013ec:    eb0003a7    ....    BL       sysInstallISR ; 0x2290
        0x000013f0:    e5860018    ....    STR      r0,[r6,#0x18]
        0x000013f4:    ea00003f    ?...    B        0x14f8 ; _uartInstallISR + 420
        0x000013f8:    e3540004    ..T.    CMP      r4,#4
        0x000013fc:    1a000006    ....    BNE      0x141c ; _uartInstallISR + 200
        0x00001400:    e3a05027    'P..    MOV      r5,#0x27
        0x00001404:    e59f2118    .!..    LDR      r2,[pc,#280] ; [0x1524] = 0x2c74
        0x00001408:    e1a01005    ....    MOV      r1,r5
        0x0000140c:    e3a00041    A...    MOV      r0,#0x41
        0x00001410:    eb00039e    ....    BL       sysInstallISR ; 0x2290
        0x00001414:    e5860018    ....    STR      r0,[r6,#0x18]
        0x00001418:    ea000036    6...    B        0x14f8 ; _uartInstallISR + 420
        0x0000141c:    e3540005    ..T.    CMP      r4,#5
        0x00001420:    1a000006    ....    BNE      0x1440 ; _uartInstallISR + 236
        0x00001424:    e3a0502c    ,P..    MOV      r5,#0x2c
        0x00001428:    e59f20f8    . ..    LDR      r2,[pc,#248] ; [0x1528] = 0x2d8c
        0x0000142c:    e1a01005    ....    MOV      r1,r5
        0x00001430:    e3a00041    A...    MOV      r0,#0x41
        0x00001434:    eb000395    ....    BL       sysInstallISR ; 0x2290
        0x00001438:    e5860018    ....    STR      r0,[r6,#0x18]
        0x0000143c:    ea00002d    -...    B        0x14f8 ; _uartInstallISR + 420
        0x00001440:    e3540006    ..T.    CMP      r4,#6
        0x00001444:    1a000006    ....    BNE      0x1464 ; _uartInstallISR + 272
        0x00001448:    e3a05028    (P..    MOV      r5,#0x28
        0x0000144c:    e59f20d8    . ..    LDR      r2,[pc,#216] ; [0x152c] = 0x2ea4
        0x00001450:    e1a01005    ....    MOV      r1,r5
        0x00001454:    e3a00041    A...    MOV      r0,#0x41
        0x00001458:    eb00038c    ....    BL       sysInstallISR ; 0x2290
        0x0000145c:    e5860018    ....    STR      r0,[r6,#0x18]
        0x00001460:    ea000024    $...    B        0x14f8 ; _uartInstallISR + 420
        0x00001464:    e3540007    ..T.    CMP      r4,#7
        0x00001468:    1a000006    ....    BNE      0x1488 ; _uartInstallISR + 308
        0x0000146c:    e3a0502d    -P..    MOV      r5,#0x2d
        0x00001470:    e59f20b8    . ..    LDR      r2,[pc,#184] ; [0x1530] = 0x2fbc
        0x00001474:    e1a01005    ....    MOV      r1,r5
        0x00001478:    e3a00041    A...    MOV      r0,#0x41
        0x0000147c:    eb000383    ....    BL       sysInstallISR ; 0x2290
        0x00001480:    e5860018    ....    STR      r0,[r6,#0x18]
        0x00001484:    ea00001b    ....    B        0x14f8 ; _uartInstallISR + 420
        0x00001488:    e3540008    ..T.    CMP      r4,#8
        0x0000148c:    1a000006    ....    BNE      0x14ac ; _uartInstallISR + 344
        0x00001490:    e3a05029    )P..    MOV      r5,#0x29
        0x00001494:    e59f2098    . ..    LDR      r2,[pc,#152] ; [0x1534] = 0x30d4
        0x00001498:    e1a01005    ....    MOV      r1,r5
        0x0000149c:    e3a00041    A...    MOV      r0,#0x41
        0x000014a0:    eb00037a    z...    BL       sysInstallISR ; 0x2290
        0x000014a4:    e5860018    ....    STR      r0,[r6,#0x18]
        0x000014a8:    ea000012    ....    B        0x14f8 ; _uartInstallISR + 420
        0x000014ac:    e3540009    ..T.    CMP      r4,#9
        0x000014b0:    1a000006    ....    BNE      0x14d0 ; _uartInstallISR + 380
        0x000014b4:    e3a0502e    .P..    MOV      r5,#0x2e
        0x000014b8:    e59f2078    x ..    LDR      r2,[pc,#120] ; [0x1538] = 0x31ec
        0x000014bc:    e1a01005    ....    MOV      r1,r5
        0x000014c0:    e3a00041    A...    MOV      r0,#0x41
        0x000014c4:    eb000371    q...    BL       sysInstallISR ; 0x2290
        0x000014c8:    e5860018    ....    STR      r0,[r6,#0x18]
        0x000014cc:    ea000009    ....    B        0x14f8 ; _uartInstallISR + 420
        0x000014d0:    e354000a    ..T.    CMP      r4,#0xa
        0x000014d4:    1a000006    ....    BNE      0x14f4 ; _uartInstallISR + 416
        0x000014d8:    e3a0502a    *P..    MOV      r5,#0x2a
        0x000014dc:    e59f2058    X ..    LDR      r2,[pc,#88] ; [0x153c] = 0x2790
        0x000014e0:    e1a01005    ....    MOV      r1,r5
        0x000014e4:    e3a00041    A...    MOV      r0,#0x41
        0x000014e8:    eb000368    h...    BL       sysInstallISR ; 0x2290
        0x000014ec:    e5860018    ....    STR      r0,[r6,#0x18]
        0x000014f0:    ea000000    ....    B        0x14f8 ; _uartInstallISR + 420
        0x000014f4:    e8bd8070    p...    POP      {r4-r6,pc}
        0x000014f8:    e3a0007f    ....    MOV      r0,#0x7f
        0x000014fc:    eb00043d    =...    BL       sysSetLocalInterrupt ; 0x25f8
        0x00001500:    e1a00005    ....    MOV      r0,r5
        0x00001504:    eb00019b    ....    BL       sysEnableInterrupt ; 0x1b78
        0x00001508:    e1a00000    ....    MOV      r0,r0
        0x0000150c:    eafffff8    ....    B        0x14f4 ; _uartInstallISR + 416
    $d
        0x00001510:    00028000    ....    DCD    163840
        0x00001514:    0000270c    .'..    DCD    9996
        0x00001518:    000028a8    .(..    DCD    10408
        0x0000151c:    00002a2c    ,*..    DCD    10796
        0x00001520:    00002b6c    l+..    DCD    11116
        0x00001524:    00002c74    t,..    DCD    11380
        0x00001528:    00002d8c    .-..    DCD    11660
        0x0000152c:    00002ea4    ....    DCD    11940
        0x00001530:    00002fbc    ./..    DCD    12220
        0x00001534:    000030d4    .0..    DCD    12500
        0x00001538:    000031ec    .1..    DCD    12780
        0x0000153c:    00002790    .'..    DCD    10128
    $a
    i._uartPerformIrDA
    _uartPerformIrDA
        0x00001540:    e92d4010    .@-.    PUSH     {r4,lr}
        0x00001544:    e1a03000    .0..    MOV      r3,r0
        0x00001548:    e1a0c001    ....    MOV      r12,r1
        0x0000154c:    e1a01403    ....    LSL      r1,r3,#8
        0x00001550:    e35c0000    ..\.    CMP      r12,#0
        0x00001554:    0a000015    ....    BEQ      0x15b0 ; _uartPerformIrDA + 112
        0x00001558:    e35c0001    ..\.    CMP      r12,#1
        0x0000155c:    1a00001b    ....    BNE      0x15d0 ; _uartPerformIrDA + 144
        0x00001560:    e3520000    ..R.    CMP      r2,#0
        0x00001564:    1a000004    ....    BNE      0x157c ; _uartPerformIrDA + 60
        0x00001568:    e59f0078    x...    LDR      r0,[pc,#120] ; [0x15e8] = 0x3e48
        0x0000156c:    e5900000    ....    LDR      r0,[r0,#0]
        0x00001570:    e281432e    .C..    ADD      r4,r1,#0xb8000000
        0x00001574:    e5840028    (...    STR      r0,[r4,#0x28]
        0x00001578:    ea000008    ....    B        0x15a0 ; _uartPerformIrDA + 96
        0x0000157c:    e3520001    ..R.    CMP      r2,#1
        0x00001580:    1a000004    ....    BNE      0x1598 ; _uartPerformIrDA + 88
        0x00001584:    e59f0060    `...    LDR      r0,[pc,#96] ; [0x15ec] = 0x3e4c
        0x00001588:    e5900000    ....    LDR      r0,[r0,#0]
        0x0000158c:    e281432e    .C..    ADD      r4,r1,#0xb8000000
        0x00001590:    e5840028    (...    STR      r0,[r4,#0x28]
        0x00001594:    ea000001    ....    B        0x15a0 ; _uartPerformIrDA + 96
        0x00001598:    e3e00009    ....    MVN      r0,#9
        0x0000159c:    e8bd8010    ....    POP      {r4,pc}
        0x000015a0:    e3a00002    ....    MOV      r0,#2
        0x000015a4:    e281432e    .C..    ADD      r4,r1,#0xb8000000
        0x000015a8:    e5840030    0...    STR      r0,[r4,#0x30]
        0x000015ac:    ea00000a    ....    B        0x15dc ; _uartPerformIrDA + 156
        0x000015b0:    e1a00000    ....    MOV      r0,r0
        0x000015b4:    e3a00040    @...    MOV      r0,#0x40
        0x000015b8:    e281432e    .C..    ADD      r4,r1,#0xb8000000
        0x000015bc:    e5840028    (...    STR      r0,[r4,#0x28]
        0x000015c0:    e3a00000    ....    MOV      r0,#0
        0x000015c4:    e281432e    .C..    ADD      r4,r1,#0xb8000000
        0x000015c8:    e5840030    0...    STR      r0,[r4,#0x30]
        0x000015cc:    ea000002    ....    B        0x15dc ; _uartPerformIrDA + 156
        0x000015d0:    e1a00000    ....    MOV      r0,r0
        0x000015d4:    e3e00009    ....    MVN      r0,#9
        0x000015d8:    eaffffef    ....    B        0x159c ; _uartPerformIrDA + 92
        0x000015dc:    e1a00000    ....    MOV      r0,r0
        0x000015e0:    e3a00000    ....    MOV      r0,#0
        0x000015e4:    eaffffec    ....    B        0x159c ; _uartPerformIrDA + 92
    $d
        0x000015e8:    00003e48    H>..    DCD    15944
        0x000015ec:    00003e4c    L>..    DCD    15948
    $a
    i._uartReceiveChars
    _uartReceiveChars
        0x000015f0:    e92d40f0    .@-.    PUSH     {r4-r7,lr}
        0x000015f4:    e24dd024    $.M.    SUB      sp,sp,#0x24
        0x000015f8:    e1a05000    .P..    MOV      r5,r0
        0x000015fc:    e3a00000    ....    MOV      r0,#0
        0x00001600:    e58d0008    ....    STR      r0,[sp,#8]
        0x00001604:    e1a00405    ....    LSL      r0,r5,#8
        0x00001608:    e58d0004    ....    STR      r0,[sp,#4]
        0x0000160c:    e3a07c01    .|..    MOV      r7,#0x100
        0x00001610:    e0850085    ....    ADD      r0,r5,r5,LSL #1
        0x00001614:    e59f12bc    ....    LDR      r1,[pc,#700] ; [0x18d8] = 0x28000
        0x00001618:    e0814200    .B..    ADD      r4,r1,r0,LSL #4
        0x0000161c:    e59d0004    ....    LDR      r0,[sp,#4]
        0x00001620:    e280032e    ....    ADD      r0,r0,#0xb8000000
        0x00001624:    e5900030    0...    LDR      r0,[r0,#0x30]
        0x00001628:    e58d0018    ....    STR      r0,[sp,#0x18]
        0x0000162c:    e1a00000    ....    MOV      r0,r0
        0x00001630:    e59d0004    ....    LDR      r0,[sp,#4]
        0x00001634:    e280032e    ....    ADD      r0,r0,#0xb8000000
        0x00001638:    e5900018    ....    LDR      r0,[r0,#0x18]
        0x0000163c:    e58d0020     ...    STR      r0,[sp,#0x20]
        0x00001640:    e59d0004    ....    LDR      r0,[sp,#4]
        0x00001644:    e280032e    ....    ADD      r0,r0,#0xb8000000
        0x00001648:    e5900038    8...    LDR      r0,[r0,#0x38]
        0x0000164c:    e58d0010    ....    STR      r0,[sp,#0x10]
        0x00001650:    e59d0004    ....    LDR      r0,[sp,#4]
        0x00001654:    e280032e    ....    ADD      r0,r0,#0xb8000000
        0x00001658:    e590001c    ....    LDR      r0,[r0,#0x1c]
        0x0000165c:    e58d000c    ....    STR      r0,[sp,#0xc]
        0x00001660:    e59d0004    ....    LDR      r0,[sp,#4]
        0x00001664:    e280032e    ....    ADD      r0,r0,#0xb8000000
        0x00001668:    e5d06000    .`..    LDRB     r6,[r0,#0]
        0x0000166c:    e59d0020     ...    LDR      r0,[sp,#0x20]
        0x00001670:    e2000008    ....    AND      r0,r0,#8
        0x00001674:    e3500000    ..P.    CMP      r0,#0
        0x00001678:    0a000024    $...    BEQ      0x1710 ; _uartReceiveChars + 288
        0x0000167c:    e59d0018    ....    LDR      r0,[sp,#0x18]
        0x00001680:    e3500003    ..P.    CMP      r0,#3
        0x00001684:    1a000021    !...    BNE      0x1710 ; _uartReceiveChars + 288
        0x00001688:    e1a00405    ....    LSL      r0,r5,#8
        0x0000168c:    e280032e    ....    ADD      r0,r0,#0xb8000000
        0x00001690:    e590002c    ,...    LDR      r0,[r0,#0x2c]
        0x00001694:    e58d001c    ....    STR      r0,[sp,#0x1c]
        0x00001698:    e1a00405    ....    LSL      r0,r5,#8
        0x0000169c:    e280032e    ....    ADD      r0,r0,#0xb8000000
        0x000016a0:    e5900008    ....    LDR      r0,[r0,#8]
        0x000016a4:    e58d0014    ....    STR      r0,[sp,#0x14]
        0x000016a8:    e59d001c    ....    LDR      r0,[sp,#0x1c]
        0x000016ac:    e2000c01    ....    AND      r0,r0,#0x100
        0x000016b0:    e3500000    ..P.    CMP      r0,#0
        0x000016b4:    0a000015    ....    BEQ      0x1710 ; _uartReceiveChars + 288
        0x000016b8:    e59d001c    ....    LDR      r0,[sp,#0x1c]
        0x000016bc:    e1560c20     .V.    CMP      r6,r0,LSR #24
        0x000016c0:    1a000007    ....    BNE      0x16e4 ; _uartReceiveChars + 244
        0x000016c4:    e59d0014    ....    LDR      r0,[sp,#0x14]
        0x000016c8:    e3c00c01    ....    BIC      r0,r0,#0x100
        0x000016cc:    e58d0014    ....    STR      r0,[sp,#0x14]
        0x000016d0:    e1a01405    ....    LSL      r1,r5,#8
        0x000016d4:    e281132e    ....    ADD      r1,r1,#0xb8000000
        0x000016d8:    e59d0014    ....    LDR      r0,[sp,#0x14]
        0x000016dc:    e5810008    ....    STR      r0,[r1,#8]
        0x000016e0:    ea00000a    ....    B        0x1710 ; _uartReceiveChars + 288
        0x000016e4:    e59d0014    ....    LDR      r0,[sp,#0x14]
        0x000016e8:    e3800c01    ....    ORR      r0,r0,#0x100
        0x000016ec:    e58d0014    ....    STR      r0,[sp,#0x14]
        0x000016f0:    e59d0014    ....    LDR      r0,[sp,#0x14]
        0x000016f4:    e3800002    ....    ORR      r0,r0,#2
        0x000016f8:    e58d0014    ....    STR      r0,[sp,#0x14]
        0x000016fc:    e1a01405    ....    LSL      r1,r5,#8
        0x00001700:    e281132e    ....    ADD      r1,r1,#0xb8000000
        0x00001704:    e59d0014    ....    LDR      r0,[sp,#0x14]
        0x00001708:    e5810008    ....    STR      r0,[r1,#8]
        0x0000170c:    ea00006e    n...    B        0x18cc ; _uartReceiveChars + 732
        0x00001710:    e594100c    ....    LDR      r1,[r4,#0xc]
        0x00001714:    e1a00005    ....    MOV      r0,r5
        0x00001718:    eb000071    q...    BL       _uartRxBufGetNextOne ; 0x18e4
        0x0000171c:    e58d0008    ....    STR      r0,[sp,#8]
        0x00001720:    e5940008    ....    LDR      r0,[r4,#8]
        0x00001724:    e59d1008    ....    LDR      r1,[sp,#8]
        0x00001728:    e1500001    ..P.    CMP      r0,r1
        0x0000172c:    1a000002    ....    BNE      0x173c ; _uartReceiveChars + 332
        0x00001730:    e59f01a4    ....    LDR      r0,[pc,#420] ; [0x18dc] = 0x3e73
        0x00001734:    e5d00000    ....    LDRB     r0,[r0,#0]
        0x00001738:    ea000063    c...    B        0x18cc ; _uartReceiveChars + 732
        0x0000173c:    e5940014    ....    LDR      r0,[r4,#0x14]
        0x00001740:    e594100c    ....    LDR      r1,[r4,#0xc]
        0x00001744:    e7c06001    .`..    STRB     r6,[r0,r1]
        0x00001748:    e3a00000    ....    MOV      r0,#0
        0x0000174c:    e5941020     ...    LDR      r1,[r4,#0x20]
        0x00001750:    e594200c    . ..    LDR      r2,[r4,#0xc]
        0x00001754:    e7810102    ....    STR      r0,[r1,r2,LSL #2]
        0x00001758:    e59d0020     ...    LDR      r0,[sp,#0x20]
        0x0000175c:    e2000040    @...    AND      r0,r0,#0x40
        0x00001760:    e3500000    ..P.    CMP      r0,#0
        0x00001764:    0a000004    ....    BEQ      0x177c ; _uartReceiveChars + 396
        0x00001768:    e3a00040    @...    MOV      r0,#0x40
        0x0000176c:    e5941020     ...    LDR      r1,[r4,#0x20]
        0x00001770:    e594200c    . ..    LDR      r2,[r4,#0xc]
        0x00001774:    e7810102    ....    STR      r0,[r1,r2,LSL #2]
        0x00001778:    ea000022    "...    B        0x1808 ; _uartReceiveChars + 536
        0x0000177c:    e59d0020     ...    LDR      r0,[sp,#0x20]
        0x00001780:    e2000020     ...    AND      r0,r0,#0x20
        0x00001784:    e3500000    ..P.    CMP      r0,#0
        0x00001788:    0a000004    ....    BEQ      0x17a0 ; _uartReceiveChars + 432
        0x0000178c:    e3a00020     ...    MOV      r0,#0x20
        0x00001790:    e5941020     ...    LDR      r1,[r4,#0x20]
        0x00001794:    e594200c    . ..    LDR      r2,[r4,#0xc]
        0x00001798:    e7810102    ....    STR      r0,[r1,r2,LSL #2]
        0x0000179c:    ea000019    ....    B        0x1808 ; _uartReceiveChars + 536
        0x000017a0:    e59d0020     ...    LDR      r0,[sp,#0x20]
        0x000017a4:    e2000010    ....    AND      r0,r0,#0x10
        0x000017a8:    e3500000    ..P.    CMP      r0,#0
        0x000017ac:    0a000004    ....    BEQ      0x17c4 ; _uartReceiveChars + 468
        0x000017b0:    e3a00010    ....    MOV      r0,#0x10
        0x000017b4:    e5941020     ...    LDR      r1,[r4,#0x20]
        0x000017b8:    e594200c    . ..    LDR      r2,[r4,#0xc]
        0x000017bc:    e7810102    ....    STR      r0,[r1,r2,LSL #2]
        0x000017c0:    ea000010    ....    B        0x1808 ; _uartReceiveChars + 536
        0x000017c4:    e59d0020     ...    LDR      r0,[sp,#0x20]
        0x000017c8:    e2000001    ....    AND      r0,r0,#1
        0x000017cc:    e3500000    ..P.    CMP      r0,#0
        0x000017d0:    0a000004    ....    BEQ      0x17e8 ; _uartReceiveChars + 504
        0x000017d4:    e3a00001    ....    MOV      r0,#1
        0x000017d8:    e5941020     ...    LDR      r1,[r4,#0x20]
        0x000017dc:    e594200c    . ..    LDR      r2,[r4,#0xc]
        0x000017e0:    e7810102    ....    STR      r0,[r1,r2,LSL #2]
        0x000017e4:    ea000007    ....    B        0x1808 ; _uartReceiveChars + 536
        0x000017e8:    e59d0020     ...    LDR      r0,[sp,#0x20]
        0x000017ec:    e2000008    ....    AND      r0,r0,#8
        0x000017f0:    e3500000    ..P.    CMP      r0,#0
        0x000017f4:    0a000003    ....    BEQ      0x1808 ; _uartReceiveChars + 536
        0x000017f8:    e3a00008    ....    MOV      r0,#8
        0x000017fc:    e5941020     ...    LDR      r1,[r4,#0x20]
        0x00001800:    e594200c    . ..    LDR      r2,[r4,#0xc]
        0x00001804:    e7810102    ....    STR      r0,[r1,r2,LSL #2]
        0x00001808:    e59d0018    ....    LDR      r0,[sp,#0x18]
        0x0000180c:    e3500001    ..P.    CMP      r0,#1
        0x00001810:    1a00000c    ....    BNE      0x1848 ; _uartReceiveChars + 600
        0x00001814:    e59d000c    ....    LDR      r0,[sp,#0xc]
        0x00001818:    e2000080    ....    AND      r0,r0,#0x80
        0x0000181c:    e3500000    ..P.    CMP      r0,#0
        0x00001820:    0a000008    ....    BEQ      0x1848 ; _uartReceiveChars + 600
        0x00001824:    e59d0010    ....    LDR      r0,[sp,#0x10]
        0x00001828:    e5941024    $...    LDR      r1,[r4,#0x24]
        0x0000182c:    e594200c    . ..    LDR      r2,[r4,#0xc]
        0x00001830:    e7810102    ....    STR      r0,[r1,r2,LSL #2]
        0x00001834:    e3a00080    ....    MOV      r0,#0x80
        0x00001838:    e3a0132e    ....    MOV      r1,#0xb8000000
        0x0000183c:    e581001c    ....    STR      r0,[r1,#0x1c]
        0x00001840:    e59f0098    ....    LDR      r0,[pc,#152] ; [0x18e0] = 0x30f
        0x00001844:    e5810038    8...    STR      r0,[r1,#0x38]
        0x00001848:    e594100c    ....    LDR      r1,[r4,#0xc]
        0x0000184c:    e1a00005    ....    MOV      r0,r5
        0x00001850:    eb000023    #...    BL       _uartRxBufGetNextOne ; 0x18e4
        0x00001854:    e584000c    ....    STR      r0,[r4,#0xc]
        0x00001858:    e5940028    (...    LDR      r0,[r4,#0x28]
        0x0000185c:    e2800001    ....    ADD      r0,r0,#1
        0x00001860:    e5840028    (...    STR      r0,[r4,#0x28]
        0x00001864:    e59d0020     ...    LDR      r0,[sp,#0x20]
        0x00001868:    e2000001    ....    AND      r0,r0,#1
        0x0000186c:    e3500000    ..P.    CMP      r0,#0
        0x00001870:    0a00000a    ....    BEQ      0x18a0 ; _uartReceiveChars + 688
        0x00001874:    e3a00001    ....    MOV      r0,#1
        0x00001878:    e5941020     ...    LDR      r1,[r4,#0x20]
        0x0000187c:    e594200c    . ..    LDR      r2,[r4,#0xc]
        0x00001880:    e7810102    ....    STR      r0,[r1,r2,LSL #2]
        0x00001884:    e594100c    ....    LDR      r1,[r4,#0xc]
        0x00001888:    e1a00005    ....    MOV      r0,r5
        0x0000188c:    eb000014    ....    BL       _uartRxBufGetNextOne ; 0x18e4
        0x00001890:    e584000c    ....    STR      r0,[r4,#0xc]
        0x00001894:    e5940028    (...    LDR      r0,[r4,#0x28]
        0x00001898:    e2800001    ....    ADD      r0,r0,#1
        0x0000189c:    e5840028    (...    STR      r0,[r4,#0x28]
        0x000018a0:    e1a00405    ....    LSL      r0,r5,#8
        0x000018a4:    e280032e    ....    ADD      r0,r0,#0xb8000000
        0x000018a8:    e5900018    ....    LDR      r0,[r0,#0x18]
        0x000018ac:    e58d0020     ...    STR      r0,[sp,#0x20]
        0x000018b0:    e59d0020     ...    LDR      r0,[sp,#0x20]
        0x000018b4:    e2000901    ....    AND      r0,r0,#0x4000
        0x000018b8:    e3500000    ..P.    CMP      r0,#0
        0x000018bc:    1a000002    ....    BNE      0x18cc ; _uartReceiveChars + 732
        0x000018c0:    e2570000    ..W.    SUBS     r0,r7,#0
        0x000018c4:    e2477001    .pG.    SUB      r7,r7,#1
        0x000018c8:    caffff58    X...    BGT      0x1630 ; _uartReceiveChars + 64
        0x000018cc:    e1a00000    ....    MOV      r0,r0
        0x000018d0:    e28dd024    $...    ADD      sp,sp,#0x24
        0x000018d4:    e8bd80f0    ....    POP      {r4-r7,pc}
    $d
        0x000018d8:    00028000    ....    DCD    163840
        0x000018dc:    00003e73    s>..    DCD    15987
        0x000018e0:    0000030f    ....    DCD    783
    $a
    i._uartRxBufGetNextOne
    _uartRxBufGetNextOne
        0x000018e4:    e1a02000    . ..    MOV      r2,r0
        0x000018e8:    e59f001c    ....    LDR      r0,[pc,#28] ; [0x190c] = 0x3e1c
        0x000018ec:    e7900102    ....    LDR      r0,[r0,r2,LSL #2]
        0x000018f0:    e2813001    .0..    ADD      r3,r1,#1
        0x000018f4:    e1500003    ..P.    CMP      r0,r3
        0x000018f8:    1a000001    ....    BNE      0x1904 ; _uartRxBufGetNextOne + 32
        0x000018fc:    e3a00000    ....    MOV      r0,#0
        0x00001900:    e12fff1e    ../.    BX       lr
        0x00001904:    e2810001    ....    ADD      r0,r1,#1
        0x00001908:    eafffffc    ....    B        0x1900 ; _uartRxBufGetNextOne + 28
    $d
        0x0000190c:    00003e1c    .>..    DCD    15900
    $a
    i._uartSetBaudRate
    _uartSetBaudRate
        0x00001910:    e92d47f0    .G-.    PUSH     {r4-r10,lr}
        0x00001914:    e1a07000    .p..    MOV      r7,r0
        0x00001918:    e1a06001    .`..    MOV      r6,r1
        0x0000191c:    e1a0a407    ....    LSL      r10,r7,#8
        0x00001920:    e5969000    ....    LDR      r9,[r6,#0]
        0x00001924:    e5965004    .P..    LDR      r5,[r6,#4]
        0x00001928:    e08900a5    ....    ADD      r0,r9,r5,LSR #1
        0x0000192c:    e1a01005    ....    MOV      r1,r5
        0x00001930:    ebfffbb5    ....    BL       __aeabi_uidiv ; 0x80c
        0x00001934:    e2408002    ..@.    SUB      r8,r0,#2
        0x00001938:    e3580801    ..X.    CMP      r8,#0x10000
        0x0000193c:    3a000005    ...:    BCC      0x1958 ; _uartSetBaudRate + 72
        0x00001940:    e0890185    ....    ADD      r0,r9,r5,LSL #3
        0x00001944:    e1a01005    ....    MOV      r1,r5
        0x00001948:    ebfffbaf    ....    BL       __aeabi_uidiv ; 0x80c
        0x0000194c:    e3a01002    ....    MOV      r1,#2
        0x00001950:    e0614220     Ba.    RSB      r4,r1,r0,LSR #4
        0x00001954:    ea000000    ....    B        0x195c ; _uartSetBaudRate + 76
        0x00001958:    e3884203    .B..    ORR      r4,r8,#0x30000000
        0x0000195c:    e28a032e    ....    ADD      r0,r10,#0xb8000000
        0x00001960:    e5804024    $@..    STR      r4,[r0,#0x24]
        0x00001964:    e3a00000    ....    MOV      r0,#0
        0x00001968:    e8bd87f0    ....    POP      {r4-r10,pc}
    i._uartTransmitChars
    _uartTransmitChars
        0x0000196c:    e92d4038    8@-.    PUSH     {r3-r5,lr}
        0x00001970:    e1a05000    .P..    MOV      r5,r0
        0x00001974:    e0850085    ....    ADD      r0,r5,r5,LSL #1
        0x00001978:    e59f1084    ....    LDR      r1,[pc,#132] ; [0x1a04] = 0x28000
        0x0000197c:    e0814200    .B..    ADD      r4,r1,r0,LSL #4
        0x00001980:    e5940000    ....    LDR      r0,[r4,#0]
        0x00001984:    e5941004    ....    LDR      r1,[r4,#4]
        0x00001988:    e1500001    ..P.    CMP      r0,r1
        0x0000198c:    0a00001b    ....    BEQ      0x1a00 ; _uartTransmitChars + 148
        0x00001990:    e3a00000    ....    MOV      r0,#0
        0x00001994:    e58d0000    ....    STR      r0,[sp,#0]
        0x00001998:    ea000014    ....    B        0x19f0 ; _uartTransmitChars + 132
        0x0000199c:    e5940010    ....    LDR      r0,[r4,#0x10]
        0x000019a0:    e5941000    ....    LDR      r1,[r4,#0]
        0x000019a4:    e7d00001    ....    LDRB     r0,[r0,r1]
        0x000019a8:    e1a01405    ....    LSL      r1,r5,#8
        0x000019ac:    e281132e    ....    ADD      r1,r1,#0xb8000000
        0x000019b0:    e5810000    ....    STR      r0,[r1,#0]
        0x000019b4:    e5941000    ....    LDR      r1,[r4,#0]
        0x000019b8:    e1a00005    ....    MOV      r0,r5
        0x000019bc:    eb000011    ....    BL       _uartTxBufGetNextOne ; 0x1a08
        0x000019c0:    e5840000    ....    STR      r0,[r4,#0]
        0x000019c4:    e5940000    ....    LDR      r0,[r4,#0]
        0x000019c8:    e5941004    ....    LDR      r1,[r4,#4]
        0x000019cc:    e1500001    ..P.    CMP      r0,r1
        0x000019d0:    1a000003    ....    BNE      0x19e4 ; _uartTransmitChars + 120
        0x000019d4:    e3a01002    ....    MOV      r1,#2
        0x000019d8:    e1a00005    ....    MOV      r0,r5
        0x000019dc:    ebfffdad    ....    BL       _uartDisableInterrupt ; 0x1098
        0x000019e0:    ea000005    ....    B        0x19fc ; _uartTransmitChars + 144
        0x000019e4:    e59d0000    ....    LDR      r0,[sp,#0]
        0x000019e8:    e2800001    ....    ADD      r0,r0,#1
        0x000019ec:    e58d0000    ....    STR      r0,[sp,#0]
        0x000019f0:    e59d0000    ....    LDR      r0,[sp,#0]
        0x000019f4:    e3500008    ..P.    CMP      r0,#8
        0x000019f8:    3affffe7    ...:    BCC      0x199c ; _uartTransmitChars + 48
        0x000019fc:    e1a00000    ....    MOV      r0,r0
        0x00001a00:    e8bd8038    8...    POP      {r3-r5,pc}
    $d
        0x00001a04:    00028000    ....    DCD    163840
    $a
    i._uartTxBufGetNextOne
    _uartTxBufGetNextOne
        0x00001a08:    e1a02000    . ..    MOV      r2,r0
        0x00001a0c:    e59f001c    ....    LDR      r0,[pc,#28] ; [0x1a30] = 0x3df0
        0x00001a10:    e7900102    ....    LDR      r0,[r0,r2,LSL #2]
        0x00001a14:    e2813001    .0..    ADD      r3,r1,#1
        0x00001a18:    e1500003    ..P.    CMP      r0,r3
        0x00001a1c:    1a000001    ....    BNE      0x1a28 ; _uartTxBufGetNextOne + 32
        0x00001a20:    e3a00000    ....    MOV      r0,#0
        0x00001a24:    e12fff1e    ../.    BX       lr
        0x00001a28:    e2810001    ....    ADD      r0,r1,#1
        0x00001a2c:    eafffffc    ....    B        0x1a24 ; _uartTxBufGetNextOne + 28
    $d
        0x00001a30:    00003df0    .=..    DCD    15856
    $a
    i.gdmaInit
    gdmaInit
        0x00001a34:    e92d4010    .@-.    PUSH     {r4,lr}
        0x00001a38:    e3a0020b    ....    MOV      r0,#0xb0000000
        0x00001a3c:    e5900210    ....    LDR      r0,[r0,#0x210]
        0x00001a40:    e3800a01    ....    ORR      r0,r0,#0x1000
        0x00001a44:    e3a0120b    ....    MOV      r1,#0xb0000000
        0x00001a48:    e5810210    ....    STR      r0,[r1,#0x210]
        0x00001a4c:    e3a00000    ....    MOV      r0,#0
        0x00001a50:    e2811901    ....    ADD      r1,r1,#0x4000
        0x00001a54:    e5810000    ....    STR      r0,[r1,#0]
        0x00001a58:    e59f0060    `...    LDR      r0,[pc,#96] ; [0x1ac0] = 0x3bdc
        0x00001a5c:    e5810004    ....    STR      r0,[r1,#4]
        0x00001a60:    e59f005c    \...    LDR      r0,[pc,#92] ; [0x1ac4] = 0xb8000100
        0x00001a64:    e5810008    ....    STR      r0,[r1,#8]
        0x00001a68:    e59f0050    P...    LDR      r0,[pc,#80] ; [0x1ac0] = 0x3bdc
        0x00001a6c:    fafffa0d    ....    BLX      strlen ; 0x2a8
        0x00001a70:    e59f1050    P...    LDR      r1,[pc,#80] ; [0x1ac8] = 0xb0004000
        0x00001a74:    e581000c    ....    STR      r0,[r1,#0xc]
        0x00001a78:    e59f004c    L...    LDR      r0,[pc,#76] ; [0x1acc] = 0x10041
        0x00001a7c:    e5810000    ....    STR      r0,[r1,#0]
        0x00001a80:    e1a00000    ....    MOV      r0,r0
        0x00001a84:    e59f003c    <...    LDR      r0,[pc,#60] ; [0x1ac8] = 0xb0004000
        0x00001a88:    e59000a0    ....    LDR      r0,[r0,#0xa0]
        0x00001a8c:    e2000c01    ....    AND      r0,r0,#0x100
        0x00001a90:    e3500000    ..P.    CMP      r0,#0
        0x00001a94:    0afffffa    ....    BEQ      0x1a84 ; gdmaInit + 80
        0x00001a98:    e1a00000    ....    MOV      r0,r0
        0x00001a9c:    e3a0032e    ....    MOV      r0,#0xb8000000
        0x00001aa0:    e590011c    ....    LDR      r0,[r0,#0x11c]
        0x00001aa4:    e2000002    ....    AND      r0,r0,#2
        0x00001aa8:    e3500000    ..P.    CMP      r0,#0
        0x00001aac:    0afffffa    ....    BEQ      0x1a9c ; gdmaInit + 104
        0x00001ab0:    e3a00c01    ....    MOV      r0,#0x100
        0x00001ab4:    e59f100c    ....    LDR      r1,[pc,#12] ; [0x1ac8] = 0xb0004000
        0x00001ab8:    e58100a0    ....    STR      r0,[r1,#0xa0]
        0x00001abc:    e8bd8010    ....    POP      {r4,pc}
    $d
        0x00001ac0:    00003bdc    .;..    DCD    15324
        0x00001ac4:    b8000100    ....    DCD    3087008000
        0x00001ac8:    b0004000    .@..    DCD    2952806400
        0x00001acc:    00010041    A...    DCD    65601
    $a
    i.main
    main
        0x00001ad0:    eb000009    ....    BL       sysDisableCache ; 0x1afc
        0x00001ad4:    eb00021a    ....    BL       sysInvalidCache ; 0x2344
        0x00001ad8:    e3a00000    ....    MOV      r0,#0
        0x00001adc:    eb0002e8    ....    BL       sysSetMMUMappingMethod ; 0x2684
        0x00001ae0:    e3a00000    ....    MOV      r0,#0
        0x00001ae4:    eb000016    ....    BL       sysEnableCache ; 0x1b44
        0x00001ae8:    eb0003b0    ....    BL       uart1Initialization ; 0x29b0
        0x00001aec:    ebffffd0    ....    BL       gdmaInit ; 0x1a34
        0x00001af0:    ea000000    ....    B        0x1af8 ; main + 40
        0x00001af4:    ebffffce    ....    BL       gdmaInit ; 0x1a34
        0x00001af8:    eafffffd    ....    B        0x1af4 ; main + 36
    i.sysDisableCache
    sysDisableCache
        0x00001afc:    e92d4010    .@-.    PUSH     {r4,lr}
        0x00001b00:    ebfffb53    S...    BL       sys_flush_and_clean_dcache ; 0x854
        0x00001b04:    e3a04000    .@..    MOV      r4,#0
        0x00001b08:    ee074f15    .O..    MCR      p15,#0x0,r4,c7,c5,#0
        0x00001b0c:    ee074f16    .O..    MCR      p15,#0x0,r4,c7,c6,#0
        0x00001b10:    ee074f9a    .O..    MCR      p15,#0x0,r4,c7,c10,#4
        0x00001b14:    ee114f10    .O..    MRC      p15,#0x0,r4,c1,c0,#0
        0x00001b18:    e3c44001    .@..    BIC      r4,r4,#1
        0x00001b1c:    ee014f10    .O..    MCR      p15,#0x0,r4,c1,c0,#0
        0x00001b20:    e3a00000    ....    MOV      r0,#0
        0x00001b24:    e59f1010    ....    LDR      r1,[pc,#16] ; [0x1b3c] = 0x3de0
        0x00001b28:    e5c10000    ....    STRB     r0,[r1,#0]
        0x00001b2c:    e3e00000    ....    MVN      r0,#0
        0x00001b30:    e59f1008    ....    LDR      r1,[pc,#8] ; [0x1b40] = 0x3de4
        0x00001b34:    e5810000    ....    STR      r0,[r1,#0]
        0x00001b38:    e8bd8010    ....    POP      {r4,pc}
    $d
        0x00001b3c:    00003de0    .=..    DCD    15840
        0x00001b40:    00003de4    .=..    DCD    15844
    $a
    i.sysEnableCache
    sysEnableCache
        0x00001b44:    e92d4010    .@-.    PUSH     {r4,lr}
        0x00001b48:    e1a04000    .@..    MOV      r4,r0
        0x00001b4c:    e1a00004    ....    MOV      r0,r4
        0x00001b50:    eb0000b2    ....    BL       sysInitMMUTable ; 0x1e20
        0x00001b54:    e3a00001    ....    MOV      r0,#1
        0x00001b58:    e59f1010    ....    LDR      r1,[pc,#16] ; [0x1b70] = 0x3de0
        0x00001b5c:    e5c10000    ....    STRB     r0,[r1,#0]
        0x00001b60:    e59f000c    ....    LDR      r0,[pc,#12] ; [0x1b74] = 0x3de4
        0x00001b64:    e5804000    .@..    STR      r4,[r0,#0]
        0x00001b68:    e3a00000    ....    MOV      r0,#0
        0x00001b6c:    e8bd8010    ....    POP      {r4,pc}
    $d
        0x00001b70:    00003de0    .=..    DCD    15840
        0x00001b74:    00003de4    .=..    DCD    15844
    $a
    i.sysEnableInterrupt
    sysEnableInterrupt
        0x00001b78:    e1a01000    ....    MOV      r1,r0
        0x00001b7c:    e351003e    >.Q.    CMP      r1,#0x3e
        0x00001b80:    ca000001    ....    BGT      0x1b8c ; sysEnableInterrupt + 20
        0x00001b84:    e3510001    ..Q.    CMP      r1,#1
        0x00001b88:    aa000001    ....    BGE      0x1b94 ; sysEnableInterrupt + 28
        0x00001b8c:    e3a00001    ....    MOV      r0,#1
        0x00001b90:    e12fff1e    ../.    BX       lr
        0x00001b94:    e3510020     .Q.    CMP      r1,#0x20
        0x00001b98:    aa000004    ....    BGE      0x1bb0 ; sysEnableInterrupt + 56
        0x00001b9c:    e3a00001    ....    MOV      r0,#1
        0x00001ba0:    e1a00110    ....    LSL      r0,r0,r1
        0x00001ba4:    e59f2020      ..    LDR      r2,[pc,#32] ; [0x1bcc] = 0xb8002000
        0x00001ba8:    e5820130    0...    STR      r0,[r2,#0x130]
        0x00001bac:    ea000004    ....    B        0x1bc4 ; sysEnableInterrupt + 76
        0x00001bb0:    e2410020     .A.    SUB      r0,r1,#0x20
        0x00001bb4:    e3a02001    . ..    MOV      r2,#1
        0x00001bb8:    e1a00012    ....    LSL      r0,r2,r0
        0x00001bbc:    e59f2008    . ..    LDR      r2,[pc,#8] ; [0x1bcc] = 0xb8002000
        0x00001bc0:    e5820134    4...    STR      r0,[r2,#0x134]
        0x00001bc4:    e3a00000    ....    MOV      r0,#0
        0x00001bc8:    eafffff0    ....    B        0x1b90 ; sysEnableInterrupt + 24
    $d
        0x00001bcc:    b8002000    . ..    DCD    3087015936
    $a
    i.sysFiqHandler
    sysFiqHandler
        0x00001bd0:    e92d500f    .P-.    PUSH     {r0-r3,r12,lr}
        0x00001bd4:    e24dd008    ..M.    SUB      sp,sp,#8
        0x00001bd8:    e59f0058    X...    LDR      r0,[pc,#88] ; [0x1c38] = 0xb8002000
        0x00001bdc:    e5900118    ....    LDR      r0,[r0,#0x118]
        0x00001be0:    e3a0103f    ?...    MOV      r1,#0x3f
        0x00001be4:    e0010120     ...    AND      r0,r1,r0,LSR #2
        0x00001be8:    e58d0004    ....    STR      r0,[sp,#4]
        0x00001bec:    e59f0044    D...    LDR      r0,[pc,#68] ; [0x1c38] = 0xb8002000
        0x00001bf0:    e5900120     ...    LDR      r0,[r0,#0x120]
        0x00001bf4:    e58d0000    ....    STR      r0,[sp,#0]
        0x00001bf8:    e59d0004    ....    LDR      r0,[sp,#4]
        0x00001bfc:    e3500000    ..P.    CMP      r0,#0
        0x00001c00:    0a000009    ....    BEQ      0x1c2c ; sysFiqHandler + 92
        0x00001c04:    e59d0000    ....    LDR      r0,[sp,#0]
        0x00001c08:    e3500000    ..P.    CMP      r0,#0
        0x00001c0c:    0a000003    ....    BEQ      0x1c20 ; sysFiqHandler + 80
        0x00001c10:    e59f1024    $...    LDR      r1,[pc,#36] ; [0x1c3c] = 0x3ce8
        0x00001c14:    e59d2004    . ..    LDR      r2,[sp,#4]
        0x00001c18:    e7910102    ....    LDR      r0,[r1,r2,LSL #2]
        0x00001c1c:    e12fff30    0./.    BLX      r0
        0x00001c20:    e3a00001    ....    MOV      r0,#1
        0x00001c24:    e59f100c    ....    LDR      r1,[pc,#12] ; [0x1c38] = 0xb8002000
        0x00001c28:    e5810150    P...    STR      r0,[r1,#0x150]
        0x00001c2c:    e28dd008    ....    ADD      sp,sp,#8
        0x00001c30:    e8bd500f    .P..    POP      {r0-r3,r12,lr}
        0x00001c34:    e25ef004    ..^.    SUBS     pc,lr,#4
    $d
        0x00001c38:    b8002000    . ..    DCD    3087015936
        0x00001c3c:    00003ce8    .<..    DCD    15592
    $a
    i.sysGetCacheState
    sysGetCacheState
        0x00001c40:    e59f0004    ....    LDR      r0,[pc,#4] ; [0x1c4c] = 0x3de0
        0x00001c44:    e5d00000    ....    LDRB     r0,[r0,#0]
        0x00001c48:    e12fff1e    ../.    BX       lr
    $d
        0x00001c4c:    00003de0    .=..    DCD    15840
    $a
    i.sysGetSdramSizebyMB
    sysGetSdramSizebyMB
        0x00001c50:    e92d400c    .@-.    PUSH     {r2,r3,lr}
        0x00001c54:    e3a00000    ....    MOV      r0,#0
        0x00001c58:    e58d0000    ....    STR      r0,[sp,#0]
        0x00001c5c:    e59f01b4    ....    LDR      r0,[pc,#436] ; [0x1e18] = 0xb0001810
        0x00001c60:    e5900000    ....    LDR      r0,[r0,#0]
        0x00001c64:    e2000007    ....    AND      r0,r0,#7
        0x00001c68:    e58d0004    ....    STR      r0,[sp,#4]
        0x00001c6c:    e59d0004    ....    LDR      r0,[sp,#4]
        0x00001c70:    e3500008    ..P.    CMP      r0,#8
        0x00001c74:    308ff100    ...0    ADDCC    pc,pc,r0,LSL #2
        0x00001c78:    ea00002a    *...    B        0x1d28 ; sysGetSdramSizebyMB + 216
        0x00001c7c:    ea000029    )...    B        0x1d28 ; sysGetSdramSizebyMB + 216
        0x00001c80:    ea000005    ....    B        0x1c9c ; sysGetSdramSizebyMB + 76
        0x00001c84:    ea000009    ....    B        0x1cb0 ; sysGetSdramSizebyMB + 96
        0x00001c88:    ea00000d    ....    B        0x1cc4 ; sysGetSdramSizebyMB + 116
        0x00001c8c:    ea000011    ....    B        0x1cd8 ; sysGetSdramSizebyMB + 136
        0x00001c90:    ea000015    ....    B        0x1cec ; sysGetSdramSizebyMB + 156
        0x00001c94:    ea000019    ....    B        0x1d00 ; sysGetSdramSizebyMB + 176
        0x00001c98:    ea00001d    ....    B        0x1d14 ; sysGetSdramSizebyMB + 196
        0x00001c9c:    e1a00000    ....    MOV      r0,r0
        0x00001ca0:    e59d0000    ....    LDR      r0,[sp,#0]
        0x00001ca4:    e2800002    ....    ADD      r0,r0,#2
        0x00001ca8:    e58d0000    ....    STR      r0,[sp,#0]
        0x00001cac:    ea00001d    ....    B        0x1d28 ; sysGetSdramSizebyMB + 216
        0x00001cb0:    e1a00000    ....    MOV      r0,r0
        0x00001cb4:    e59d0000    ....    LDR      r0,[sp,#0]
        0x00001cb8:    e2800004    ....    ADD      r0,r0,#4
        0x00001cbc:    e58d0000    ....    STR      r0,[sp,#0]
        0x00001cc0:    ea000018    ....    B        0x1d28 ; sysGetSdramSizebyMB + 216
        0x00001cc4:    e1a00000    ....    MOV      r0,r0
        0x00001cc8:    e59d0000    ....    LDR      r0,[sp,#0]
        0x00001ccc:    e2800008    ....    ADD      r0,r0,#8
        0x00001cd0:    e58d0000    ....    STR      r0,[sp,#0]
        0x00001cd4:    ea000013    ....    B        0x1d28 ; sysGetSdramSizebyMB + 216
        0x00001cd8:    e1a00000    ....    MOV      r0,r0
        0x00001cdc:    e59d0000    ....    LDR      r0,[sp,#0]
        0x00001ce0:    e2800010    ....    ADD      r0,r0,#0x10
        0x00001ce4:    e58d0000    ....    STR      r0,[sp,#0]
        0x00001ce8:    ea00000e    ....    B        0x1d28 ; sysGetSdramSizebyMB + 216
        0x00001cec:    e1a00000    ....    MOV      r0,r0
        0x00001cf0:    e59d0000    ....    LDR      r0,[sp,#0]
        0x00001cf4:    e2800020     ...    ADD      r0,r0,#0x20
        0x00001cf8:    e58d0000    ....    STR      r0,[sp,#0]
        0x00001cfc:    ea000009    ....    B        0x1d28 ; sysGetSdramSizebyMB + 216
        0x00001d00:    e1a00000    ....    MOV      r0,r0
        0x00001d04:    e59d0000    ....    LDR      r0,[sp,#0]
        0x00001d08:    e2800040    @...    ADD      r0,r0,#0x40
        0x00001d0c:    e58d0000    ....    STR      r0,[sp,#0]
        0x00001d10:    ea000004    ....    B        0x1d28 ; sysGetSdramSizebyMB + 216
        0x00001d14:    e1a00000    ....    MOV      r0,r0
        0x00001d18:    e59d0000    ....    LDR      r0,[sp,#0]
        0x00001d1c:    e2800080    ....    ADD      r0,r0,#0x80
        0x00001d20:    e58d0000    ....    STR      r0,[sp,#0]
        0x00001d24:    e1a00000    ....    MOV      r0,r0
        0x00001d28:    e1a00000    ....    MOV      r0,r0
        0x00001d2c:    e59f00e8    ....    LDR      r0,[pc,#232] ; [0x1e1c] = 0xb0001814
        0x00001d30:    e5900000    ....    LDR      r0,[r0,#0]
        0x00001d34:    e2000007    ....    AND      r0,r0,#7
        0x00001d38:    e58d0004    ....    STR      r0,[sp,#4]
        0x00001d3c:    e59d0004    ....    LDR      r0,[sp,#4]
        0x00001d40:    e3500008    ..P.    CMP      r0,#8
        0x00001d44:    308ff100    ...0    ADDCC    pc,pc,r0,LSL #2
        0x00001d48:    ea00002a    *...    B        0x1df8 ; sysGetSdramSizebyMB + 424
        0x00001d4c:    ea000029    )...    B        0x1df8 ; sysGetSdramSizebyMB + 424
        0x00001d50:    ea000005    ....    B        0x1d6c ; sysGetSdramSizebyMB + 284
        0x00001d54:    ea000009    ....    B        0x1d80 ; sysGetSdramSizebyMB + 304
        0x00001d58:    ea00000d    ....    B        0x1d94 ; sysGetSdramSizebyMB + 324
        0x00001d5c:    ea000011    ....    B        0x1da8 ; sysGetSdramSizebyMB + 344
        0x00001d60:    ea000015    ....    B        0x1dbc ; sysGetSdramSizebyMB + 364
        0x00001d64:    ea000019    ....    B        0x1dd0 ; sysGetSdramSizebyMB + 384
        0x00001d68:    ea00001d    ....    B        0x1de4 ; sysGetSdramSizebyMB + 404
        0x00001d6c:    e1a00000    ....    MOV      r0,r0
        0x00001d70:    e59d0000    ....    LDR      r0,[sp,#0]
        0x00001d74:    e2800002    ....    ADD      r0,r0,#2
        0x00001d78:    e58d0000    ....    STR      r0,[sp,#0]
        0x00001d7c:    ea00001d    ....    B        0x1df8 ; sysGetSdramSizebyMB + 424
        0x00001d80:    e1a00000    ....    MOV      r0,r0
        0x00001d84:    e59d0000    ....    LDR      r0,[sp,#0]
        0x00001d88:    e2800004    ....    ADD      r0,r0,#4
        0x00001d8c:    e58d0000    ....    STR      r0,[sp,#0]
        0x00001d90:    ea000018    ....    B        0x1df8 ; sysGetSdramSizebyMB + 424
        0x00001d94:    e1a00000    ....    MOV      r0,r0
        0x00001d98:    e59d0000    ....    LDR      r0,[sp,#0]
        0x00001d9c:    e2800008    ....    ADD      r0,r0,#8
        0x00001da0:    e58d0000    ....    STR      r0,[sp,#0]
        0x00001da4:    ea000013    ....    B        0x1df8 ; sysGetSdramSizebyMB + 424
        0x00001da8:    e1a00000    ....    MOV      r0,r0
        0x00001dac:    e59d0000    ....    LDR      r0,[sp,#0]
        0x00001db0:    e2800010    ....    ADD      r0,r0,#0x10
        0x00001db4:    e58d0000    ....    STR      r0,[sp,#0]
        0x00001db8:    ea00000e    ....    B        0x1df8 ; sysGetSdramSizebyMB + 424
        0x00001dbc:    e1a00000    ....    MOV      r0,r0
        0x00001dc0:    e59d0000    ....    LDR      r0,[sp,#0]
        0x00001dc4:    e2800020     ...    ADD      r0,r0,#0x20
        0x00001dc8:    e58d0000    ....    STR      r0,[sp,#0]
        0x00001dcc:    ea000009    ....    B        0x1df8 ; sysGetSdramSizebyMB + 424
        0x00001dd0:    e1a00000    ....    MOV      r0,r0
        0x00001dd4:    e59d0000    ....    LDR      r0,[sp,#0]
        0x00001dd8:    e2800040    @...    ADD      r0,r0,#0x40
        0x00001ddc:    e58d0000    ....    STR      r0,[sp,#0]
        0x00001de0:    ea000004    ....    B        0x1df8 ; sysGetSdramSizebyMB + 424
        0x00001de4:    e1a00000    ....    MOV      r0,r0
        0x00001de8:    e59d0000    ....    LDR      r0,[sp,#0]
        0x00001dec:    e2800080    ....    ADD      r0,r0,#0x80
        0x00001df0:    e58d0000    ....    STR      r0,[sp,#0]
        0x00001df4:    e1a00000    ....    MOV      r0,r0
        0x00001df8:    e1a00000    ....    MOV      r0,r0
        0x00001dfc:    e59d0000    ....    LDR      r0,[sp,#0]
        0x00001e00:    e3500000    ..P.    CMP      r0,#0
        0x00001e04:    0a000001    ....    BEQ      0x1e10 ; sysGetSdramSizebyMB + 448
        0x00001e08:    e59d0000    ....    LDR      r0,[sp,#0]
        0x00001e0c:    e8bd800c    ....    POP      {r2,r3,pc}
        0x00001e10:    e3a00001    ....    MOV      r0,#1
        0x00001e14:    eafffffc    ....    B        0x1e0c ; sysGetSdramSizebyMB + 444
    $d
        0x00001e18:    b0001810    ....    DCD    2952796176
        0x00001e1c:    b0001814    ....    DCD    2952796180
    $a
    i.sysInitMMUTable
    sysInitMMUTable
        0x00001e20:    e92d41fc    .A-.    PUSH     {r2-r8,lr}
        0x00001e24:    e1a07000    .p..    MOV      r7,r0
        0x00001e28:    e59f02a0    ....    LDR      r0,[pc,#672] ; [0x20d0] = 0x3de8
        0x00001e2c:    e5d00000    ....    LDRB     r0,[r0,#0]
        0x00001e30:    e3500000    ..P.    CMP      r0,#0
        0x00001e34:    1a0000a1    ....    BNE      0x20c0 ; sysInitMMUTable + 672
        0x00001e38:    ebffff84    ....    BL       sysGetSdramSizebyMB ; 0x1c50
        0x00001e3c:    e1a06000    .`..    MOV      r6,r0
        0x00001e40:    e3a00b03    ....    MOV      r0,#0xc00
        0x00001e44:    e58d0004    ....    STR      r0,[sp,#4]
        0x00001e48:    e59d0004    ....    LDR      r0,[sp,#4]
        0x00001e4c:    e3800e1e    ....    ORR      r0,r0,#0x1e0
        0x00001e50:    e58d0004    ....    STR      r0,[sp,#4]
        0x00001e54:    e59d0004    ....    LDR      r0,[sp,#4]
        0x00001e58:    e3800010    ....    ORR      r0,r0,#0x10
        0x00001e5c:    e58d0004    ....    STR      r0,[sp,#4]
        0x00001e60:    e59d0004    ....    LDR      r0,[sp,#4]
        0x00001e64:    e58d0004    ....    STR      r0,[sp,#4]
        0x00001e68:    e59d0004    ....    LDR      r0,[sp,#4]
        0x00001e6c:    e3800002    ....    ORR      r0,r0,#2
        0x00001e70:    e58d0004    ....    STR      r0,[sp,#4]
        0x00001e74:    e3a04000    .@..    MOV      r4,#0
        0x00001e78:    ea000004    ....    B        0x1e90 ; sysInitMMUTable + 112
        0x00001e7c:    e59d0004    ....    LDR      r0,[sp,#4]
        0x00001e80:    e1800a04    ....    ORR      r0,r0,r4,LSL #20
        0x00001e84:    e59f1248    H...    LDR      r1,[pc,#584] ; [0x20d4] = 0x4000
        0x00001e88:    e7810104    ....    STR      r0,[r1,r4,LSL #2]
        0x00001e8c:    e2844001    .@..    ADD      r4,r4,#1
        0x00001e90:    e3540a01    ..T.    CMP      r4,#0x1000
        0x00001e94:    bafffff8    ....    BLT      0x1e7c ; sysInitMMUTable + 92
        0x00001e98:    e3560040    @.V.    CMP      r6,#0x40
        0x00001e9c:    da000001    ....    BLE      0x1ea8 ; sysInitMMUTable + 136
        0x00001ea0:    e3a05040    @P..    MOV      r5,#0x40
        0x00001ea4:    ea000000    ....    B        0x1eac ; sysInitMMUTable + 140
        0x00001ea8:    e1a05006    .P..    MOV      r5,r6
        0x00001eac:    e3a00000    ....    MOV      r0,#0
        0x00001eb0:    e1a03007    .0..    MOV      r3,r7
        0x00001eb4:    e3a02601    .&..    MOV      r2,#0x100000
        0x00001eb8:    e58d0000    ....    STR      r0,[sp,#0]
        0x00001ebc:    e1a01000    ....    MOV      r1,r0
        0x00001ec0:    eb000088    ....    BL       sysInitPageTable ; 0x20e8
        0x00001ec4:    e59f020c    ....    LDR      r0,[pc,#524] ; [0x20d8] = 0x8000
        0x00001ec8:    e1a00520     ...    LSR      r0,r0,#10
        0x00001ecc:    e1a00500    ....    LSL      r0,r0,#10
        0x00001ed0:    e58d0004    ....    STR      r0,[sp,#4]
        0x00001ed4:    e59d0004    ....    LDR      r0,[sp,#4]
        0x00001ed8:    e3800e1e    ....    ORR      r0,r0,#0x1e0
        0x00001edc:    e58d0004    ....    STR      r0,[sp,#4]
        0x00001ee0:    e59d0004    ....    LDR      r0,[sp,#4]
        0x00001ee4:    e3800010    ....    ORR      r0,r0,#0x10
        0x00001ee8:    e58d0004    ....    STR      r0,[sp,#4]
        0x00001eec:    e59d0004    ....    LDR      r0,[sp,#4]
        0x00001ef0:    e3800001    ....    ORR      r0,r0,#1
        0x00001ef4:    e58d0004    ....    STR      r0,[sp,#4]
        0x00001ef8:    e59f11d4    ....    LDR      r1,[pc,#468] ; [0x20d4] = 0x4000
        0x00001efc:    e59d0004    ....    LDR      r0,[sp,#4]
        0x00001f00:    e5810000    ....    STR      r0,[r1,#0]
        0x00001f04:    e3a00000    ....    MOV      r0,#0
        0x00001f08:    e3e03000    .0..    MVN      r3,#0
        0x00001f0c:    e3a02601    .&..    MOV      r2,#0x100000
        0x00001f10:    e58d0000    ....    STR      r0,[sp,#0]
        0x00001f14:    e1a01000    ....    MOV      r1,r0
        0x00001f18:    e3a00102    ....    MOV      r0,#0x80000000
        0x00001f1c:    eb000071    q...    BL       sysInitPageTable ; 0x20e8
        0x00001f20:    e59f01b4    ....    LDR      r0,[pc,#436] ; [0x20dc] = 0x18000
        0x00001f24:    e1a00520     ...    LSR      r0,r0,#10
        0x00001f28:    e1a00500    ....    LSL      r0,r0,#10
        0x00001f2c:    e58d0004    ....    STR      r0,[sp,#4]
        0x00001f30:    e59d0004    ....    LDR      r0,[sp,#4]
        0x00001f34:    e3800e1e    ....    ORR      r0,r0,#0x1e0
        0x00001f38:    e58d0004    ....    STR      r0,[sp,#4]
        0x00001f3c:    e59d0004    ....    LDR      r0,[sp,#4]
        0x00001f40:    e3800010    ....    ORR      r0,r0,#0x10
        0x00001f44:    e58d0004    ....    STR      r0,[sp,#4]
        0x00001f48:    e59d0004    ....    LDR      r0,[sp,#4]
        0x00001f4c:    e3800001    ....    ORR      r0,r0,#1
        0x00001f50:    e58d0004    ....    STR      r0,[sp,#4]
        0x00001f54:    e59f1184    ....    LDR      r1,[pc,#388] ; [0x20e0] = 0x6000
        0x00001f58:    e59d0004    ....    LDR      r0,[sp,#4]
        0x00001f5c:    e5810000    ....    STR      r0,[r1,#0]
        0x00001f60:    e3a04001    .@..    MOV      r4,#1
        0x00001f64:    ea000024    $...    B        0x1ffc ; sysInitMMUTable + 476
        0x00001f68:    e59f0168    h...    LDR      r0,[pc,#360] ; [0x20d8] = 0x8000
        0x00001f6c:    e0800504    ....    ADD      r0,r0,r4,LSL #10
        0x00001f70:    e1a00520     ...    LSR      r0,r0,#10
        0x00001f74:    e1a00500    ....    LSL      r0,r0,#10
        0x00001f78:    e58d0004    ....    STR      r0,[sp,#4]
        0x00001f7c:    e59d0004    ....    LDR      r0,[sp,#4]
        0x00001f80:    e3800e1e    ....    ORR      r0,r0,#0x1e0
        0x00001f84:    e58d0004    ....    STR      r0,[sp,#4]
        0x00001f88:    e59d0004    ....    LDR      r0,[sp,#4]
        0x00001f8c:    e3800010    ....    ORR      r0,r0,#0x10
        0x00001f90:    e58d0004    ....    STR      r0,[sp,#4]
        0x00001f94:    e59d0004    ....    LDR      r0,[sp,#4]
        0x00001f98:    e3800001    ....    ORR      r0,r0,#1
        0x00001f9c:    e58d0004    ....    STR      r0,[sp,#4]
        0x00001fa0:    e59f013c    <...    LDR      r0,[pc,#316] ; [0x20e4] = 0x3dec
        0x00001fa4:    e5900000    ....    LDR      r0,[r0,#0]
        0x00001fa8:    e3500000    ..P.    CMP      r0,#0
        0x00001fac:    1a000007    ....    BNE      0x1fd0 ; sysInitMMUTable + 432
        0x00001fb0:    e3a00000    ....    MOV      r0,#0
        0x00001fb4:    e1a01a04    ....    LSL      r1,r4,#20
        0x00001fb8:    e58d0000    ....    STR      r0,[sp,#0]
        0x00001fbc:    e1a00a04    ....    LSL      r0,r4,#20
        0x00001fc0:    e1a03007    .0..    MOV      r3,r7
        0x00001fc4:    e3a02601    .&..    MOV      r2,#0x100000
        0x00001fc8:    eb000046    F...    BL       sysInitPageTable ; 0x20e8
        0x00001fcc:    ea000006    ....    B        0x1fec ; sysInitMMUTable + 460
        0x00001fd0:    e3a00001    ....    MOV      r0,#1
        0x00001fd4:    e1a01a04    ....    LSL      r1,r4,#20
        0x00001fd8:    e58d0000    ....    STR      r0,[sp,#0]
        0x00001fdc:    e1a00a04    ....    LSL      r0,r4,#20
        0x00001fe0:    e1a03007    .0..    MOV      r3,r7
        0x00001fe4:    e3a02601    .&..    MOV      r2,#0x100000
        0x00001fe8:    eb00003e    >...    BL       sysInitPageTable ; 0x20e8
        0x00001fec:    e59f10e0    ....    LDR      r1,[pc,#224] ; [0x20d4] = 0x4000
        0x00001ff0:    e59d0004    ....    LDR      r0,[sp,#4]
        0x00001ff4:    e7810104    ....    STR      r0,[r1,r4,LSL #2]
        0x00001ff8:    e2844001    .@..    ADD      r4,r4,#1
        0x00001ffc:    e1540005    ..T.    CMP      r4,r5
        0x00002000:    baffffd8    ....    BLT      0x1f68 ; sysInitMMUTable + 328
        0x00002004:    e3a04001    .@..    MOV      r4,#1
        0x00002008:    ea000027    '...    B        0x20ac ; sysInitMMUTable + 652
        0x0000200c:    e59f00c8    ....    LDR      r0,[pc,#200] ; [0x20dc] = 0x18000
        0x00002010:    e0800504    ....    ADD      r0,r0,r4,LSL #10
        0x00002014:    e1a00520     ...    LSR      r0,r0,#10
        0x00002018:    e1a00500    ....    LSL      r0,r0,#10
        0x0000201c:    e58d0004    ....    STR      r0,[sp,#4]
        0x00002020:    e59d0004    ....    LDR      r0,[sp,#4]
        0x00002024:    e3800e1e    ....    ORR      r0,r0,#0x1e0
        0x00002028:    e58d0004    ....    STR      r0,[sp,#4]
        0x0000202c:    e59d0004    ....    LDR      r0,[sp,#4]
        0x00002030:    e3800010    ....    ORR      r0,r0,#0x10
        0x00002034:    e58d0004    ....    STR      r0,[sp,#4]
        0x00002038:    e59d0004    ....    LDR      r0,[sp,#4]
        0x0000203c:    e3800001    ....    ORR      r0,r0,#1
        0x00002040:    e58d0004    ....    STR      r0,[sp,#4]
        0x00002044:    e59f0098    ....    LDR      r0,[pc,#152] ; [0x20e4] = 0x3dec
        0x00002048:    e5900000    ....    LDR      r0,[r0,#0]
        0x0000204c:    e3500000    ..P.    CMP      r0,#0
        0x00002050:    1a000008    ....    BNE      0x2078 ; sysInitMMUTable + 600
        0x00002054:    e3a00000    ....    MOV      r0,#0
        0x00002058:    e1a01a04    ....    LSL      r1,r4,#20
        0x0000205c:    e3a02102    .!..    MOV      r2,#0x80000000
        0x00002060:    e58d0000    ....    STR      r0,[sp,#0]
        0x00002064:    e1820a04    ....    ORR      r0,r2,r4,LSL #20
        0x00002068:    e3e03000    .0..    MVN      r3,#0
        0x0000206c:    e3a02601    .&..    MOV      r2,#0x100000
        0x00002070:    eb00001c    ....    BL       sysInitPageTable ; 0x20e8
        0x00002074:    ea000007    ....    B        0x2098 ; sysInitMMUTable + 632
        0x00002078:    e3a00001    ....    MOV      r0,#1
        0x0000207c:    e1a01a04    ....    LSL      r1,r4,#20
        0x00002080:    e3a02102    .!..    MOV      r2,#0x80000000
        0x00002084:    e58d0000    ....    STR      r0,[sp,#0]
        0x00002088:    e1820a04    ....    ORR      r0,r2,r4,LSL #20
        0x0000208c:    e3e03000    .0..    MVN      r3,#0
        0x00002090:    e3a02601    .&..    MOV      r2,#0x100000
        0x00002094:    eb000013    ....    BL       sysInitPageTable ; 0x20e8
        0x00002098:    e2841b02    ....    ADD      r1,r4,#0x800
        0x0000209c:    e59f2030    0 ..    LDR      r2,[pc,#48] ; [0x20d4] = 0x4000
        0x000020a0:    e59d0004    ....    LDR      r0,[sp,#4]
        0x000020a4:    e7820101    ....    STR      r0,[r2,r1,LSL #2]
        0x000020a8:    e2844001    .@..    ADD      r4,r4,#1
        0x000020ac:    e1540005    ..T.    CMP      r4,r5
        0x000020b0:    baffffd5    ....    BLT      0x200c ; sysInitMMUTable + 492
        0x000020b4:    e3a00001    ....    MOV      r0,#1
        0x000020b8:    e59f1010    ....    LDR      r1,[pc,#16] ; [0x20d0] = 0x3de8
        0x000020bc:    e5c10000    ....    STRB     r0,[r1,#0]
        0x000020c0:    e59f000c    ....    LDR      r0,[pc,#12] ; [0x20d4] = 0x4000
        0x000020c4:    ebfff9d9    ....    BL       sysSetupCP15 ; 0x830
        0x000020c8:    e3a00000    ....    MOV      r0,#0
        0x000020cc:    e8bd81fc    ....    POP      {r2-r8,pc}
    $d
        0x000020d0:    00003de8    .=..    DCD    15848
        0x000020d4:    00004000    .@..    DCD    16384
        0x000020d8:    00008000    ....    DCD    32768
        0x000020dc:    00018000    ....    DCD    98304
        0x000020e0:    00006000    .`..    DCD    24576
        0x000020e4:    00003dec    .=..    DCD    15852
    $a
    i.sysInitPageTable
    sysInitPageTable
        0x000020e8:    e92d4ffe    .O-.    PUSH     {r1-r11,lr}
        0x000020ec:    e1a04000    .@..    MOV      r4,r0
        0x000020f0:    e1a06001    .`..    MOV      r6,r1
        0x000020f4:    e1a07003    .p..    MOV      r7,r3
        0x000020f8:    e2040102    ....    AND      r0,r4,#0x80000000
        0x000020fc:    e3500000    ..P.    CMP      r0,#0
        0x00002100:    0a000001    ....    BEQ      0x210c ; sysInitPageTable + 36
        0x00002104:    e59f515c    \Q..    LDR      r5,[pc,#348] ; [0x2268] = 0x18000
        0x00002108:    ea000000    ....    B        0x2110 ; sysInitPageTable + 40
        0x0000210c:    e59f5158    XQ..    LDR      r5,[pc,#344] ; [0x226c] = 0x8000
        0x00002110:    ebfffeca    ....    BL       sysGetCacheState ; 0x1c40
        0x00002114:    e3500001    ..P.    CMP      r0,#1
        0x00002118:    1a000000    ....    BNE      0x2120 ; sysInitPageTable + 56
        0x0000211c:    e3855102    .Q..    ORR      r5,r5,#0x80000000
        0x00002120:    e3c44102    .A..    BIC      r4,r4,#0x80000000
        0x00002124:    e0840002    ....    ADD      r0,r4,r2
        0x00002128:    e3500301    ..P.    CMP      r0,#0x4000000
        0x0000212c:    9a000001    ....    BLS      0x2138 ; sysInitPageTable + 80
        0x00002130:    e3e00000    ....    MVN      r0,#0
        0x00002134:    e8bd8ffe    ....    POP      {r1-r11,pc}
        0x00002138:    e1a00604    ....    LSL      r0,r4,#12
        0x0000213c:    e1a00620     ...    LSR      r0,r0,#12
        0x00002140:    e3500000    ..P.    CMP      r0,#0
        0x00002144:    0a000001    ....    BEQ      0x2150 ; sysInitPageTable + 104
        0x00002148:    e3e00000    ....    MVN      r0,#0
        0x0000214c:    eafffff8    ....    B        0x2134 ; sysInitPageTable + 76
        0x00002150:    e1a0cfc2    ....    ASR      r12,r2,#31
        0x00002154:    e082ca2c    ,...    ADD      r12,r2,r12,LSR #20
        0x00002158:    e1a0c64c    L...    ASR      r12,r12,#12
        0x0000215c:    e042c60c    ..B.    SUB      r12,r2,r12,LSL #12
        0x00002160:    e35c0000    ..\.    CMP      r12,#0
        0x00002164:    0a000001    ....    BEQ      0x2170 ; sysInitPageTable + 136
        0x00002168:    e3e00000    ....    MVN      r0,#0
        0x0000216c:    eafffff0    ....    B        0x2134 ; sysInitPageTable + 76
        0x00002170:    e1a00002    ....    MOV      r0,r2
        0x00002174:    e1a0cfc2    ....    ASR      r12,r2,#31
        0x00002178:    e082ca2c    ,...    ADD      r12,r2,r12,LSR #20
        0x0000217c:    e1a0964c    L...    ASR      r9,r12,#12
        0x00002180:    e3570000    ..W.    CMP      r7,#0
        0x00002184:    1a000001    ....    BNE      0x2190 ; sysInitPageTable + 168
        0x00002188:    e3a0300c    .0..    MOV      r3,#0xc
        0x0000218c:    ea000004    ....    B        0x21a4 ; sysInitPageTable + 188
        0x00002190:    e3570001    ..W.    CMP      r7,#1
        0x00002194:    1a000001    ....    BNE      0x21a0 ; sysInitPageTable + 184
        0x00002198:    e3a03008    .0..    MOV      r3,#8
        0x0000219c:    ea000000    ....    B        0x21a4 ; sysInitPageTable + 188
        0x000021a0:    e3a03000    .0..    MOV      r3,#0
        0x000021a4:    e59d0030    0...    LDR      r0,[sp,#0x30]
        0x000021a8:    e3500000    ..P.    CMP      r0,#0
        0x000021ac:    1a000001    ....    BNE      0x21b8 ; sysInitPageTable + 208
        0x000021b0:    e58d6008    .`..    STR      r6,[sp,#8]
        0x000021b4:    ea000002    ....    B        0x21c4 ; sysInitPageTable + 220
        0x000021b8:    e0860002    ....    ADD      r0,r6,r2
        0x000021bc:    e2400a01    ..@.    SUB      r0,r0,#0x1000
        0x000021c0:    e58d0008    ....    STR      r0,[sp,#8]
        0x000021c4:    e3a08a01    ....    MOV      r8,#0x1000
        0x000021c8:    e3a01000    ....    MOV      r1,#0
        0x000021cc:    ea000021    !...    B        0x2258 ; sysInitPageTable + 368
        0x000021d0:    e0840601    ....    ADD      r0,r4,r1,LSL #12
        0x000021d4:    e58d0004    ....    STR      r0,[sp,#4]
        0x000021d8:    e59d0004    ....    LDR      r0,[sp,#4]
        0x000021dc:    e1a0aa20     ...    LSR      r10,r0,#20
        0x000021e0:    e59d0004    ....    LDR      r0,[sp,#4]
        0x000021e4:    e2000aff    ....    AND      r0,r0,#0xff000
        0x000021e8:    e1a0b620     ...    LSR      r11,r0,#12
        0x000021ec:    e59d0008    ....    LDR      r0,[sp,#8]
        0x000021f0:    e1a00620     ...    LSR      r0,r0,#12
        0x000021f4:    e1a00600    ....    LSL      r0,r0,#12
        0x000021f8:    e58d0000    ....    STR      r0,[sp,#0]
        0x000021fc:    e59d0000    ....    LDR      r0,[sp,#0]
        0x00002200:    e3800eff    ....    ORR      r0,r0,#0xff0
        0x00002204:    e58d0000    ....    STR      r0,[sp,#0]
        0x00002208:    e59d0000    ....    LDR      r0,[sp,#0]
        0x0000220c:    e1800003    ....    ORR      r0,r0,r3
        0x00002210:    e58d0000    ....    STR      r0,[sp,#0]
        0x00002214:    e59d0000    ....    LDR      r0,[sp,#0]
        0x00002218:    e3800002    ....    ORR      r0,r0,#2
        0x0000221c:    e58d0000    ....    STR      r0,[sp,#0]
        0x00002220:    e085c50a    ....    ADD      r12,r5,r10,LSL #10
        0x00002224:    e59d0000    ....    LDR      r0,[sp,#0]
        0x00002228:    e78c010b    ....    STR      r0,[r12,r11,LSL #2]
        0x0000222c:    e59d0030    0...    LDR      r0,[sp,#0x30]
        0x00002230:    e3500000    ..P.    CMP      r0,#0
        0x00002234:    1a000003    ....    BNE      0x2248 ; sysInitPageTable + 352
        0x00002238:    e59d0008    ....    LDR      r0,[sp,#8]
        0x0000223c:    e0800008    ....    ADD      r0,r0,r8
        0x00002240:    e58d0008    ....    STR      r0,[sp,#8]
        0x00002244:    ea000002    ....    B        0x2254 ; sysInitPageTable + 364
        0x00002248:    e59d0008    ....    LDR      r0,[sp,#8]
        0x0000224c:    e0400008    ..@.    SUB      r0,r0,r8
        0x00002250:    e58d0008    ....    STR      r0,[sp,#8]
        0x00002254:    e2811001    ....    ADD      r1,r1,#1
        0x00002258:    e1510009    ..Q.    CMP      r1,r9
        0x0000225c:    baffffdb    ....    BLT      0x21d0 ; sysInitPageTable + 232
        0x00002260:    e3a00000    ....    MOV      r0,#0
        0x00002264:    eaffffb2    ....    B        0x2134 ; sysInitPageTable + 76
    $d
        0x00002268:    00018000    ....    DCD    98304
        0x0000226c:    00008000    ....    DCD    32768
    $a
    i.sysInitializeAIC
    sysInitializeAIC
        0x00002270:    e59f0010    ....    LDR      r0,[pc,#16] ; [0x2288] = 0x2350
        0x00002274:    e3a01000    ....    MOV      r1,#0
        0x00002278:    e5810038    8...    STR      r0,[r1,#0x38]
        0x0000227c:    e59f0008    ....    LDR      r0,[pc,#8] ; [0x228c] = 0x1bd0
        0x00002280:    e581003c    <...    STR      r0,[r1,#0x3c]
        0x00002284:    e12fff1e    ../.    BX       lr
    $d
        0x00002288:    00002350    P#..    DCD    9040
        0x0000228c:    00001bd0    ....    DCD    7120
    $a
    i.sysInstallISR
    sysInstallISR
        0x00002290:    e92d40f0    .@-.    PUSH     {r4-r7,lr}
        0x00002294:    e1a04000    .@..    MOV      r4,r0
        0x00002298:    e1a03001    .0..    MOV      r3,r1
        0x0000229c:    e59f0090    ....    LDR      r0,[pc,#144] ; [0x2334] = 0x3bec
        0x000022a0:    e5d00000    ....    LDRB     r0,[r0,#0]
        0x000022a4:    e3500000    ..P.    CMP      r0,#0
        0x000022a8:    1a000003    ....    BNE      0x22bc ; sysInstallISR + 44
        0x000022ac:    ebffffef    ....    BL       sysInitializeAIC ; 0x2270
        0x000022b0:    e3a00001    ....    MOV      r0,#1
        0x000022b4:    e59f1078    x...    LDR      r1,[pc,#120] ; [0x2334] = 0x3bec
        0x000022b8:    e5c10000    ....    STRB     r0,[r1,#0]
        0x000022bc:    e1a00003    ....    MOV      r0,r3
        0x000022c0:    e1a01fc3    ....    ASR      r1,r3,#31
        0x000022c4:    e0831f21    !...    ADD      r1,r3,r1,LSR #30
        0x000022c8:    e1a01141    A...    ASR      r1,r1,#2
        0x000022cc:    e59fc064    d...    LDR      r12,[pc,#100] ; [0x2338] = 0xb8002000
        0x000022d0:    e08c6101    .a..    ADD      r6,r12,r1,LSL #2
        0x000022d4:    e1a00003    ....    MOV      r0,r3
        0x000022d8:    e1a01fc3    ....    ASR      r1,r3,#31
        0x000022dc:    e0831f21    !...    ADD      r1,r3,r1,LSR #30
        0x000022e0:    e1a01141    A...    ASR      r1,r1,#2
        0x000022e4:    e0431101    ..C.    SUB      r1,r3,r1,LSL #2
        0x000022e8:    e1a07181    .q..    LSL      r7,r1,#3
        0x000022ec:    e20440ff    .@..    AND      r4,r4,#0xff
        0x000022f0:    e5960000    ....    LDR      r0,[r6,#0]
        0x000022f4:    e3a01007    ....    MOV      r1,#7
        0x000022f8:    e1c00711    ....    BIC      r0,r0,r1,LSL r7
        0x000022fc:    e1800714    ....    ORR      r0,r0,r4,LSL r7
        0x00002300:    e5860000    ....    STR      r0,[r6,#0]
        0x00002304:    e2040007    ....    AND      r0,r4,#7
        0x00002308:    e3500000    ..P.    CMP      r0,#0
        0x0000230c:    1a000003    ....    BNE      0x2320 ; sysInstallISR + 144
        0x00002310:    e59f0024    $...    LDR      r0,[pc,#36] ; [0x233c] = 0x3ce8
        0x00002314:    e7905103    .Q..    LDR      r5,[r0,r3,LSL #2]
        0x00002318:    e7802103    .!..    STR      r2,[r0,r3,LSL #2]
        0x0000231c:    ea000002    ....    B        0x232c ; sysInstallISR + 156
        0x00002320:    e59f0018    ....    LDR      r0,[pc,#24] ; [0x2340] = 0x3bf0
        0x00002324:    e7905103    .Q..    LDR      r5,[r0,r3,LSL #2]
        0x00002328:    e7802103    .!..    STR      r2,[r0,r3,LSL #2]
        0x0000232c:    e1a00005    ....    MOV      r0,r5
        0x00002330:    e8bd80f0    ....    POP      {r4-r7,pc}
    $d
        0x00002334:    00003bec    .;..    DCD    15340
        0x00002338:    b8002000    . ..    DCD    3087015936
        0x0000233c:    00003ce8    .<..    DCD    15592
        0x00002340:    00003bf0    .;..    DCD    15344
    $a
    i.sysInvalidCache
    sysInvalidCache
        0x00002344:    e3a00000    ....    MOV      r0,#0
        0x00002348:    ee070f17    ....    MCR      p15,#0x0,r0,c7,c7,#0
        0x0000234c:    e12fff1e    ../.    BX       lr
    i.sysIrqHandler
    sysIrqHandler
        0x00002350:    e92d500f    .P-.    PUSH     {r0-r3,r12,lr}
        0x00002354:    e24dd008    ..M.    SUB      sp,sp,#8
        0x00002358:    e59f0058    X...    LDR      r0,[pc,#88] ; [0x23b8] = 0xb8002000
        0x0000235c:    e5900118    ....    LDR      r0,[r0,#0x118]
        0x00002360:    e3a0103f    ?...    MOV      r1,#0x3f
        0x00002364:    e0010120     ...    AND      r0,r1,r0,LSR #2
        0x00002368:    e58d0004    ....    STR      r0,[sp,#4]
        0x0000236c:    e59f0044    D...    LDR      r0,[pc,#68] ; [0x23b8] = 0xb8002000
        0x00002370:    e5900120     ...    LDR      r0,[r0,#0x120]
        0x00002374:    e58d0000    ....    STR      r0,[sp,#0]
        0x00002378:    e59d0004    ....    LDR      r0,[sp,#4]
        0x0000237c:    e3500000    ..P.    CMP      r0,#0
        0x00002380:    0a000009    ....    BEQ      0x23ac ; sysIrqHandler + 92
        0x00002384:    e59d0000    ....    LDR      r0,[sp,#0]
        0x00002388:    e3500000    ..P.    CMP      r0,#0
        0x0000238c:    0a000003    ....    BEQ      0x23a0 ; sysIrqHandler + 80
        0x00002390:    e59f1024    $...    LDR      r1,[pc,#36] ; [0x23bc] = 0x3bf0
        0x00002394:    e59d2004    . ..    LDR      r2,[sp,#4]
        0x00002398:    e7910102    ....    LDR      r0,[r1,r2,LSL #2]
        0x0000239c:    e12fff30    0./.    BLX      r0
        0x000023a0:    e3a00001    ....    MOV      r0,#1
        0x000023a4:    e59f100c    ....    LDR      r1,[pc,#12] ; [0x23b8] = 0xb8002000
        0x000023a8:    e5810150    P...    STR      r0,[r1,#0x150]
        0x000023ac:    e28dd008    ....    ADD      sp,sp,#8
        0x000023b0:    e8bd500f    .P..    POP      {r0-r3,r12,lr}
        0x000023b4:    e25ef004    ..^.    SUBS     pc,lr,#4
    $d
        0x000023b8:    b8002000    . ..    DCD    3087015936
        0x000023bc:    00003bf0    .;..    DCD    15344
    $a
    i.sysPutNumber
    sysPutNumber
        0x000023c0:    e92d4ff0    .O-.    PUSH     {r4-r11,lr}
        0x000023c4:    e24dd02c    ,.M.    SUB      sp,sp,#0x2c
        0x000023c8:    e1a08000    ....    MOV      r8,r0
        0x000023cc:    e1a07001    .p..    MOV      r7,r1
        0x000023d0:    e1a05002    .P..    MOV      r5,r2
        0x000023d4:    e1a09003    ....    MOV      r9,r3
        0x000023d8:    e3a04000    .@..    MOV      r4,#0
        0x000023dc:    e3a0b000    ....    MOV      r11,#0
        0x000023e0:    e3a00000    ....    MOV      r0,#0
        0x000023e4:    e58d0000    ....    STR      r0,[sp,#0]
        0x000023e8:    e3590000    ..Y.    CMP      r9,#0
        0x000023ec:    1a000000    ....    BNE      0x23f4 ; sysPutNumber + 52
        0x000023f0:    e3a09020     ...    MOV      r9,#0x20
        0x000023f4:    e3550000    ..U.    CMP      r5,#0
        0x000023f8:    aa000001    ....    BGE      0x2404 ; sysPutNumber + 68
        0x000023fc:    e2655000    .Pe.    RSB      r5,r5,#0
        0x00002400:    e3a0b001    ....    MOV      r11,#1
        0x00002404:    e3550000    ..U.    CMP      r5,#0
        0x00002408:    ba000001    ....    BLT      0x2414 ; sysPutNumber + 84
        0x0000240c:    e3550050    P.U.    CMP      r5,#0x50
        0x00002410:    da000000    ....    BLE      0x2418 ; sysPutNumber + 88
        0x00002414:    e3a05000    .P..    MOV      r5,#0
        0x00002418:    e3570000    ..W.    CMP      r7,#0
        0x0000241c:    aa000005    ....    BGE      0x2438 ; sysPutNumber + 120
        0x00002420:    e2677000    .pg.    RSB      r7,r7,#0
        0x00002424:    e3580000    ..X.    CMP      r8,#0
        0x00002428:    aa000002    ....    BGE      0x2438 ; sysPutNumber + 120
        0x0000242c:    e3a00001    ....    MOV      r0,#1
        0x00002430:    e58d0000    ....    STR      r0,[sp,#0]
        0x00002434:    e2688000    ..h.    RSB      r8,r8,#0
        0x00002438:    e1a06008    .`..    MOV      r6,r8
        0x0000243c:    e1a00000    ....    MOV      r0,r0
        0x00002440:    e3570010    ..W.    CMP      r7,#0x10
        0x00002444:    0a000009    ....    BEQ      0x2470 ; sysPutNumber + 176
        0x00002448:    e1a01007    ....    MOV      r1,r7
        0x0000244c:    e1a00006    ....    MOV      r0,r6
        0x00002450:    ebfff8ed    ....    BL       __aeabi_uidiv ; 0x80c
        0x00002454:    e1a0a801    ....    LSL      r10,r1,#16
        0x00002458:    e1a0a82a    *...    LSR      r10,r10,#16
        0x0000245c:    e1a01007    ....    MOV      r1,r7
        0x00002460:    e1a00006    ....    MOV      r0,r6
        0x00002464:    ebfff8e8    ....    BL       __aeabi_uidiv ; 0x80c
        0x00002468:    e1a06000    .`..    MOV      r6,r0
        0x0000246c:    ea000001    ....    B        0x2478 ; sysPutNumber + 184
        0x00002470:    e206a00f    ....    AND      r10,r6,#0xf
        0x00002474:    e1a06226    &b..    LSR      r6,r6,#4
        0x00002478:    e35a0009    ..Z.    CMP      r10,#9
        0x0000247c:    ca000001    ....    BGT      0x2488 ; sysPutNumber + 200
        0x00002480:    e3a00030    0...    MOV      r0,#0x30
        0x00002484:    ea000000    ....    B        0x248c ; sysPutNumber + 204
        0x00002488:    e3a00037    7...    MOV      r0,#0x37
        0x0000248c:    e080000a    ....    ADD      r0,r0,r10
        0x00002490:    e28d1004    ....    ADD      r1,sp,#4
        0x00002494:    e7c10004    ....    STRB     r0,[r1,r4]
        0x00002498:    e2844001    .@..    ADD      r4,r4,#1
        0x0000249c:    e3560000    ..V.    CMP      r6,#0
        0x000024a0:    0a000017    ....    BEQ      0x2504 ; sysPutNumber + 324
        0x000024a4:    e357000a    ..W.    CMP      r7,#0xa
        0x000024a8:    1a000015    ....    BNE      0x2504 ; sysPutNumber + 324
        0x000024ac:    e3540003    ..T.    CMP      r4,#3
        0x000024b0:    0a00000e    ....    BEQ      0x24f0 ; sysPutNumber + 304
        0x000024b4:    e3540007    ..T.    CMP      r4,#7
        0x000024b8:    0a00000c    ....    BEQ      0x24f0 ; sysPutNumber + 304
        0x000024bc:    e354000b    ..T.    CMP      r4,#0xb
        0x000024c0:    1a000001    ....    BNE      0x24cc ; sysPutNumber + 268
        0x000024c4:    e3a00001    ....    MOV      r0,#1
        0x000024c8:    ea000000    ....    B        0x24d0 ; sysPutNumber + 272
        0x000024cc:    e3a00000    ....    MOV      r0,#0
        0x000024d0:    e354000f    ..T.    CMP      r4,#0xf
        0x000024d4:    1a000001    ....    BNE      0x24e0 ; sysPutNumber + 288
        0x000024d8:    e3a01001    ....    MOV      r1,#1
        0x000024dc:    ea000000    ....    B        0x24e4 ; sysPutNumber + 292
        0x000024e0:    e3a01000    ....    MOV      r1,#0
        0x000024e4:    e1800001    ....    ORR      r0,r0,r1
        0x000024e8:    e3500000    ..P.    CMP      r0,#0
        0x000024ec:    0a000004    ....    BEQ      0x2504 ; sysPutNumber + 324
        0x000024f0:    e3a0102c    ,...    MOV      r1,#0x2c
        0x000024f4:    e1a00004    ....    MOV      r0,r4
        0x000024f8:    e2844001    .@..    ADD      r4,r4,#1
        0x000024fc:    e28d2004    . ..    ADD      r2,sp,#4
        0x00002500:    e7c21000    ....    STRB     r1,[r2,r0]
        0x00002504:    e3560000    ..V.    CMP      r6,#0
        0x00002508:    1affffcc    ....    BNE      0x2440 ; sysPutNumber + 128
        0x0000250c:    e59d0000    ....    LDR      r0,[sp,#0]
        0x00002510:    e3500000    ..P.    CMP      r0,#0
        0x00002514:    0a000003    ....    BEQ      0x2528 ; sysPutNumber + 360
        0x00002518:    e3a0002d    -...    MOV      r0,#0x2d
        0x0000251c:    e28d1004    ....    ADD      r1,sp,#4
        0x00002520:    e7c10004    ....    STRB     r0,[r1,r4]
        0x00002524:    e2844001    .@..    ADD      r4,r4,#1
        0x00002528:    e1550004    ..U.    CMP      r5,r4
        0x0000252c:    ca000003    ....    BGT      0x2540 ; sysPutNumber + 384
        0x00002530:    e1a01004    ....    MOV      r1,r4
        0x00002534:    e28d0004    ....    ADD      r0,sp,#4
        0x00002538:    eb000024    $...    BL       sysPutStringReverse ; 0x25d0
        0x0000253c:    ea00000d    ....    B        0x2578 ; sysPutNumber + 440
        0x00002540:    e0455004    .PE.    SUB      r5,r5,r4
        0x00002544:    e35b0000    ..[.    CMP      r11,#0
        0x00002548:    1a000002    ....    BNE      0x2558 ; sysPutNumber + 408
        0x0000254c:    e1a01005    ....    MOV      r1,r5
        0x00002550:    e1a00009    ....    MOV      r0,r9
        0x00002554:    eb000009    ....    BL       sysPutRepChar ; 0x2580
        0x00002558:    e1a01004    ....    MOV      r1,r4
        0x0000255c:    e28d0004    ....    ADD      r0,sp,#4
        0x00002560:    eb00001a    ....    BL       sysPutStringReverse ; 0x25d0
        0x00002564:    e35b0000    ..[.    CMP      r11,#0
        0x00002568:    0a000002    ....    BEQ      0x2578 ; sysPutNumber + 440
        0x0000256c:    e1a01005    ....    MOV      r1,r5
        0x00002570:    e1a00009    ....    MOV      r0,r9
        0x00002574:    eb000001    ....    BL       sysPutRepChar ; 0x2580
        0x00002578:    e28dd02c    ,...    ADD      sp,sp,#0x2c
        0x0000257c:    e8bd8ff0    ....    POP      {r4-r11,pc}
    i.sysPutRepChar
    sysPutRepChar
        0x00002580:    e92d4010    .@-.    PUSH     {r4,lr}
        0x00002584:    e1a04000    .@..    MOV      r4,r0
        0x00002588:    e1a03001    .0..    MOV      r3,r1
        0x0000258c:    ea000001    ....    B        0x2598 ; sysPutRepChar + 24
        0x00002590:    e1a00004    ....    MOV      r0,r4
        0x00002594:    ebfff97d    }...    BL       _PutChar_f ; 0xb90
        0x00002598:    e2530000    ..S.    SUBS     r0,r3,#0
        0x0000259c:    e2433001    .0C.    SUB      r3,r3,#1
        0x000025a0:    1afffffa    ....    BNE      0x2590 ; sysPutRepChar + 16
        0x000025a4:    e8bd8010    ....    POP      {r4,pc}
    i.sysPutString
    sysPutString
        0x000025a8:    e52de004    ..-.    PUSH     {lr}
        0x000025ac:    e1a03000    .0..    MOV      r3,r0
        0x000025b0:    ea000002    ....    B        0x25c0 ; sysPutString + 24
        0x000025b4:    e5d30000    ....    LDRB     r0,[r3,#0]
        0x000025b8:    ebfff974    t...    BL       _PutChar_f ; 0xb90
        0x000025bc:    e2833001    .0..    ADD      r3,r3,#1
        0x000025c0:    e5d30000    ....    LDRB     r0,[r3,#0]
        0x000025c4:    e3500000    ..P.    CMP      r0,#0
        0x000025c8:    1afffff9    ....    BNE      0x25b4 ; sysPutString + 12
        0x000025cc:    e49df004    ....    POP      {pc}
    i.sysPutStringReverse
    sysPutStringReverse
        0x000025d0:    e92d4010    .@-.    PUSH     {r4,lr}
        0x000025d4:    e1a04000    .@..    MOV      r4,r0
        0x000025d8:    e1a03001    .0..    MOV      r3,r1
        0x000025dc:    ea000001    ....    B        0x25e8 ; sysPutStringReverse + 24
        0x000025e0:    e7d40003    ....    LDRB     r0,[r4,r3]
        0x000025e4:    ebfff969    i...    BL       _PutChar_f ; 0xb90
        0x000025e8:    e2530000    ..S.    SUBS     r0,r3,#0
        0x000025ec:    e2433001    .0C.    SUB      r3,r3,#1
        0x000025f0:    cafffffa    ....    BGT      0x25e0 ; sysPutStringReverse + 16
        0x000025f4:    e8bd8010    ....    POP      {r4,pc}
    i.sysSetLocalInterrupt
    sysSetLocalInterrupt
        0x000025f8:    e1a01000    ....    MOV      r1,r0
        0x000025fc:    e3510080    ..Q.    CMP      r1,#0x80
        0x00002600:    0a000013    ....    BEQ      0x2654 ; sysSetLocalInterrupt + 92
        0x00002604:    ca000006    ....    BGT      0x2624 ; sysSetLocalInterrupt + 44
        0x00002608:    e351003f    ?.Q.    CMP      r1,#0x3f
        0x0000260c:    0a00000c    ....    BEQ      0x2644 ; sysSetLocalInterrupt + 76
        0x00002610:    e3510040    @.Q.    CMP      r1,#0x40
        0x00002614:    0a000010    ....    BEQ      0x265c ; sysSetLocalInterrupt + 100
        0x00002618:    e351007f    ..Q.    CMP      r1,#0x7f
        0x0000261c:    1a000013    ....    BNE      0x2670 ; sysSetLocalInterrupt + 120
        0x00002620:    ea000004    ....    B        0x2638 ; sysSetLocalInterrupt + 64
        0x00002624:    e35100bf    ..Q.    CMP      r1,#0xbf
        0x00002628:    0a000004    ....    BEQ      0x2640 ; sysSetLocalInterrupt + 72
        0x0000262c:    e35100c0    ..Q.    CMP      r1,#0xc0
        0x00002630:    1a00000e    ....    BNE      0x2670 ; sysSetLocalInterrupt + 120
        0x00002634:    ea000009    ....    B        0x2660 ; sysSetLocalInterrupt + 104
        0x00002638:    e1a00000    ....    MOV      r0,r0
        0x0000263c:    e1a00000    ....    MOV      r0,r0
        0x00002640:    e1a00000    ....    MOV      r0,r0
        0x00002644:    e10f2000    . ..    MRS      r2,APSR ; formerly CPSR
        0x00002648:    e0022001    . ..    AND      r2,r2,r1
        0x0000264c:    e121f002    ..!.    MSR      CPSR_c,r2
        0x00002650:    ea000008    ....    B        0x2678 ; sysSetLocalInterrupt + 128
        0x00002654:    e1a00000    ....    MOV      r0,r0
        0x00002658:    e1a00000    ....    MOV      r0,r0
        0x0000265c:    e1a00000    ....    MOV      r0,r0
        0x00002660:    e10f2000    . ..    MRS      r2,APSR ; formerly CPSR
        0x00002664:    e1822001    . ..    ORR      r2,r2,r1
        0x00002668:    e121f002    ..!.    MSR      CPSR_c,r2
        0x0000266c:    ea000001    ....    B        0x2678 ; sysSetLocalInterrupt + 128
        0x00002670:    e1a00000    ....    MOV      r0,r0
        0x00002674:    e1a00000    ....    MOV      r0,r0
        0x00002678:    e1a00000    ....    MOV      r0,r0
        0x0000267c:    e3a00000    ....    MOV      r0,#0
        0x00002680:    e12fff1e    ../.    BX       lr
    i.sysSetMMUMappingMethod
    sysSetMMUMappingMethod
        0x00002684:    e1a01000    ....    MOV      r1,r0
        0x00002688:    e59f0008    ....    LDR      r0,[pc,#8] ; [0x2698] = 0x3dec
        0x0000268c:    e5801000    ....    STR      r1,[r0,#0]
        0x00002690:    e3a00000    ....    MOV      r0,#0
        0x00002694:    e12fff1e    ../.    BX       lr
    $d
        0x00002698:    00003dec    .=..    DCD    15852
    $a
    i.sysprintf
    sysprintf
        0x0000269c:    e92d000f    ..-.    PUSH     {r0-r3}
        0x000026a0:    e92d4010    .@-.    PUSH     {r4,lr}
        0x000026a4:    e28d400c    .@..    ADD      r4,sp,#0xc
        0x000026a8:    ea000011    ....    B        0x26f4 ; sysprintf + 88
        0x000026ac:    e59d0008    ....    LDR      r0,[sp,#8]
        0x000026b0:    e5d00000    ....    LDRB     r0,[r0,#0]
        0x000026b4:    e3500025    %.P.    CMP      r0,#0x25
        0x000026b8:    1a000007    ....    BNE      0x26dc ; sysprintf + 64
        0x000026bc:    e2840004    ....    ADD      r0,r4,#4
        0x000026c0:    e1a04000    .@..    MOV      r4,r0
        0x000026c4:    e5101004    ....    LDR      r1,[r0,#-4]
        0x000026c8:    e59d0008    ....    LDR      r0,[sp,#8]
        0x000026cc:    e2800001    ....    ADD      r0,r0,#1
        0x000026d0:    ebfff862    b...    BL       FormatItem ; 0x860
        0x000026d4:    e58d0008    ....    STR      r0,[sp,#8]
        0x000026d8:    ea000005    ....    B        0x26f4 ; sysprintf + 88
        0x000026dc:    e59d1008    ....    LDR      r1,[sp,#8]
        0x000026e0:    e5d10000    ....    LDRB     r0,[r1,#0]
        0x000026e4:    e59d2008    . ..    LDR      r2,[sp,#8]
        0x000026e8:    e2822001    . ..    ADD      r2,r2,#1
        0x000026ec:    e58d2008    . ..    STR      r2,[sp,#8]
        0x000026f0:    ebfff926    &...    BL       _PutChar_f ; 0xb90
        0x000026f4:    e59d0008    ....    LDR      r0,[sp,#8]
        0x000026f8:    e5d00000    ....    LDRB     r0,[r0,#0]
        0x000026fc:    e3500000    ..P.    CMP      r0,#0
        0x00002700:    1affffe9    ....    BNE      0x26ac ; sysprintf + 16
        0x00002704:    e49d4004    .@..    POP      {r4}
        0x00002708:    e49df014    ....    LDR      pc,[sp],#0x14
    i.uart0ISR
    uart0ISR
        0x0000270c:    e92d401c    .@-.    PUSH     {r2-r4,lr}
        0x00002710:    e3a0032e    ....    MOV      r0,#0xb8000000
        0x00002714:    e590001c    ....    LDR      r0,[r0,#0x1c]
        0x00002718:    e20000ff    ....    AND      r0,r0,#0xff
        0x0000271c:    e58d0004    ....    STR      r0,[sp,#4]
        0x00002720:    e59d0004    ....    LDR      r0,[sp,#4]
        0x00002724:    e2000002    ....    AND      r0,r0,#2
        0x00002728:    e3500000    ..P.    CMP      r0,#0
        0x0000272c:    0a000001    ....    BEQ      0x2738 ; uart0ISR + 44
        0x00002730:    e3a00000    ....    MOV      r0,#0
        0x00002734:    ebfffc8c    ....    BL       _uartTransmitChars ; 0x196c
        0x00002738:    e59d0004    ....    LDR      r0,[sp,#4]
        0x0000273c:    e2000011    ....    AND      r0,r0,#0x11
        0x00002740:    e3500000    ..P.    CMP      r0,#0
        0x00002744:    0a000001    ....    BEQ      0x2750 ; uart0ISR + 68
        0x00002748:    e3a00000    ....    MOV      r0,#0
        0x0000274c:    ebfffba7    ....    BL       _uartReceiveChars ; 0x15f0
        0x00002750:    e59d0004    ....    LDR      r0,[sp,#4]
        0x00002754:    e2000004    ....    AND      r0,r0,#4
        0x00002758:    e3500000    ..P.    CMP      r0,#0
        0x0000275c:    0a000009    ....    BEQ      0x2788 ; uart0ISR + 124
        0x00002760:    e3a0032e    ....    MOV      r0,#0xb8000000
        0x00002764:    e5900018    ....    LDR      r0,[r0,#0x18]
        0x00002768:    e58d0000    ....    STR      r0,[sp,#0]
        0x0000276c:    e59d0000    ....    LDR      r0,[sp,#0]
        0x00002770:    e2000040    @...    AND      r0,r0,#0x40
        0x00002774:    e3500000    ..P.    CMP      r0,#0
        0x00002778:    0a000002    ....    BEQ      0x2788 ; uart0ISR + 124
        0x0000277c:    e3a00001    ....    MOV      r0,#1
        0x00002780:    e59f1004    ....    LDR      r1,[pc,#4] ; [0x278c] = 0x3e5b
        0x00002784:    e5c10000    ....    STRB     r0,[r1,#0]
        0x00002788:    e8bd801c    ....    POP      {r2-r4,pc}
    $d
        0x0000278c:    00003e5b    [>..    DCD    15963
    $a
    i.uart10ISR
    uart10ISR
        0x00002790:    e92d401f    .@-.    PUSH     {r0-r4,lr}
        0x00002794:    e59f00f0    ....    LDR      r0,[pc,#240] ; [0x288c] = 0xb8000a1c
        0x00002798:    e5900000    ....    LDR      r0,[r0,#0]
        0x0000279c:    e20000ff    ....    AND      r0,r0,#0xff
        0x000027a0:    e58d000c    ....    STR      r0,[sp,#0xc]
        0x000027a4:    e59f00e4    ....    LDR      r0,[pc,#228] ; [0x2890] = 0xb8000a30
        0x000027a8:    e5900000    ....    LDR      r0,[r0,#0]
        0x000027ac:    e58d0000    ....    STR      r0,[sp,#0]
        0x000027b0:    e59d000c    ....    LDR      r0,[sp,#0xc]
        0x000027b4:    e2000002    ....    AND      r0,r0,#2
        0x000027b8:    e3500000    ..P.    CMP      r0,#0
        0x000027bc:    0a000001    ....    BEQ      0x27c8 ; uart10ISR + 56
        0x000027c0:    e3a0000a    ....    MOV      r0,#0xa
        0x000027c4:    ebfffc68    h...    BL       _uartTransmitChars ; 0x196c
        0x000027c8:    e59d0000    ....    LDR      r0,[sp,#0]
        0x000027cc:    e3500003    ..P.    CMP      r0,#3
        0x000027d0:    1a000002    ....    BNE      0x27e0 ; uart10ISR + 80
        0x000027d4:    e3a0000a    ....    MOV      r0,#0xa
        0x000027d8:    ebfff8ab    ....    BL       RS485_HANDLE ; 0xa8c
        0x000027dc:    ea000029    )...    B        0x2888 ; uart10ISR + 248
        0x000027e0:    e59d000c    ....    LDR      r0,[sp,#0xc]
        0x000027e4:    e2000011    ....    AND      r0,r0,#0x11
        0x000027e8:    e3500000    ..P.    CMP      r0,#0
        0x000027ec:    0a000001    ....    BEQ      0x27f8 ; uart10ISR + 104
        0x000027f0:    e3a0000a    ....    MOV      r0,#0xa
        0x000027f4:    ebfffb7d    }...    BL       _uartReceiveChars ; 0x15f0
        0x000027f8:    e59d000c    ....    LDR      r0,[sp,#0xc]
        0x000027fc:    e2000008    ....    AND      r0,r0,#8
        0x00002800:    e3500000    ..P.    CMP      r0,#0
        0x00002804:    0a000010    ....    BEQ      0x284c ; uart10ISR + 188
        0x00002808:    e59f0084    ....    LDR      r0,[pc,#132] ; [0x2894] = 0x3e71
        0x0000280c:    e5d00000    ....    LDRB     r0,[r0,#0]
        0x00002810:    e3500000    ..P.    CMP      r0,#0
        0x00002814:    1a00000a    ....    BNE      0x2844 ; uart10ISR + 180
        0x00002818:    e59f0078    x...    LDR      r0,[pc,#120] ; [0x2898] = 0xb8000a14
        0x0000281c:    e5900000    ....    LDR      r0,[r0,#0]
        0x00002820:    e58d0004    ....    STR      r0,[sp,#4]
        0x00002824:    e59d0004    ....    LDR      r0,[sp,#4]
        0x00002828:    e2000001    ....    AND      r0,r0,#1
        0x0000282c:    e3500000    ..P.    CMP      r0,#0
        0x00002830:    0a000005    ....    BEQ      0x284c ; uart10ISR + 188
        0x00002834:    e3a00001    ....    MOV      r0,#1
        0x00002838:    e59f105c    \...    LDR      r1,[pc,#92] ; [0x289c] = 0x3e70
        0x0000283c:    e5c10000    ....    STRB     r0,[r1,#0]
        0x00002840:    ea000001    ....    B        0x284c ; uart10ISR + 188
        0x00002844:    e3a0000a    ....    MOV      r0,#0xa
        0x00002848:    ebfff932    2...    BL       _uartCheckModemStatus ; 0xd18
        0x0000284c:    e59d000c    ....    LDR      r0,[sp,#0xc]
        0x00002850:    e2000004    ....    AND      r0,r0,#4
        0x00002854:    e3500000    ..P.    CMP      r0,#0
        0x00002858:    0a00000a    ....    BEQ      0x2888 ; uart10ISR + 248
        0x0000285c:    e59f003c    <...    LDR      r0,[pc,#60] ; [0x28a0] = 0xb8000a18
        0x00002860:    e5900000    ....    LDR      r0,[r0,#0]
        0x00002864:    e58d0008    ....    STR      r0,[sp,#8]
        0x00002868:    e59d0008    ....    LDR      r0,[sp,#8]
        0x0000286c:    e2000040    @...    AND      r0,r0,#0x40
        0x00002870:    e3500000    ..P.    CMP      r0,#0
        0x00002874:    0a000002    ....    BEQ      0x2884 ; uart10ISR + 244
        0x00002878:    e3a00001    ....    MOV      r0,#1
        0x0000287c:    e59f1020     ...    LDR      r1,[pc,#32] ; [0x28a4] = 0x3e65
        0x00002880:    e5c10000    ....    STRB     r0,[r1,#0]
        0x00002884:    e1a00000    ....    MOV      r0,r0
        0x00002888:    e8bd801f    ....    POP      {r0-r4,pc}
    $d
        0x0000288c:    b8000a1c    ....    DCD    3087010332
        0x00002890:    b8000a30    0...    DCD    3087010352
        0x00002894:    00003e71    q>..    DCD    15985
        0x00002898:    b8000a14    ....    DCD    3087010324
        0x0000289c:    00003e70    p>..    DCD    15984
        0x000028a0:    b8000a18    ....    DCD    3087010328
        0x000028a4:    00003e65    e>..    DCD    15973
    $a
    i.uart1ISR
    uart1ISR
        0x000028a8:    e92d401f    .@-.    PUSH     {r0-r4,lr}
        0x000028ac:    e3a0032e    ....    MOV      r0,#0xb8000000
        0x000028b0:    e590011c    ....    LDR      r0,[r0,#0x11c]
        0x000028b4:    e20000ff    ....    AND      r0,r0,#0xff
        0x000028b8:    e58d000c    ....    STR      r0,[sp,#0xc]
        0x000028bc:    e3a0032e    ....    MOV      r0,#0xb8000000
        0x000028c0:    e5900130    0...    LDR      r0,[r0,#0x130]
        0x000028c4:    e58d0000    ....    STR      r0,[sp,#0]
        0x000028c8:    e59d000c    ....    LDR      r0,[sp,#0xc]
        0x000028cc:    e2000002    ....    AND      r0,r0,#2
        0x000028d0:    e3500000    ..P.    CMP      r0,#0
        0x000028d4:    0a000001    ....    BEQ      0x28e0 ; uart1ISR + 56
        0x000028d8:    e3a00001    ....    MOV      r0,#1
        0x000028dc:    ebfffc22    "...    BL       _uartTransmitChars ; 0x196c
        0x000028e0:    e59d0000    ....    LDR      r0,[sp,#0]
        0x000028e4:    e3500003    ..P.    CMP      r0,#3
        0x000028e8:    1a000002    ....    BNE      0x28f8 ; uart1ISR + 80
        0x000028ec:    e3a00001    ....    MOV      r0,#1
        0x000028f0:    ebfff865    e...    BL       RS485_HANDLE ; 0xa8c
        0x000028f4:    ea000029    )...    B        0x29a0 ; uart1ISR + 248
        0x000028f8:    e59d000c    ....    LDR      r0,[sp,#0xc]
        0x000028fc:    e2000011    ....    AND      r0,r0,#0x11
        0x00002900:    e3500000    ..P.    CMP      r0,#0
        0x00002904:    0a000001    ....    BEQ      0x2910 ; uart1ISR + 104
        0x00002908:    e3a00001    ....    MOV      r0,#1
        0x0000290c:    ebfffb37    7...    BL       _uartReceiveChars ; 0x15f0
        0x00002910:    e59d000c    ....    LDR      r0,[sp,#0xc]
        0x00002914:    e2000008    ....    AND      r0,r0,#8
        0x00002918:    e3500000    ..P.    CMP      r0,#0
        0x0000291c:    0a000010    ....    BEQ      0x2964 ; uart1ISR + 188
        0x00002920:    e59f007c    |...    LDR      r0,[pc,#124] ; [0x29a4] = 0x3e71
        0x00002924:    e5d00000    ....    LDRB     r0,[r0,#0]
        0x00002928:    e3500000    ..P.    CMP      r0,#0
        0x0000292c:    1a00000a    ....    BNE      0x295c ; uart1ISR + 180
        0x00002930:    e3a0032e    ....    MOV      r0,#0xb8000000
        0x00002934:    e5900114    ....    LDR      r0,[r0,#0x114]
        0x00002938:    e58d0004    ....    STR      r0,[sp,#4]
        0x0000293c:    e59d0004    ....    LDR      r0,[sp,#4]
        0x00002940:    e2000001    ....    AND      r0,r0,#1
        0x00002944:    e3500000    ..P.    CMP      r0,#0
        0x00002948:    0a000005    ....    BEQ      0x2964 ; uart1ISR + 188
        0x0000294c:    e3a00001    ....    MOV      r0,#1
        0x00002950:    e59f1050    P...    LDR      r1,[pc,#80] ; [0x29a8] = 0x3e67
        0x00002954:    e5c10000    ....    STRB     r0,[r1,#0]
        0x00002958:    ea000001    ....    B        0x2964 ; uart1ISR + 188
        0x0000295c:    e3a00001    ....    MOV      r0,#1
        0x00002960:    ebfff8ec    ....    BL       _uartCheckModemStatus ; 0xd18
        0x00002964:    e59d000c    ....    LDR      r0,[sp,#0xc]
        0x00002968:    e2000004    ....    AND      r0,r0,#4
        0x0000296c:    e3500000    ..P.    CMP      r0,#0
        0x00002970:    0a00000a    ....    BEQ      0x29a0 ; uart1ISR + 248
        0x00002974:    e3a0032e    ....    MOV      r0,#0xb8000000
        0x00002978:    e5900118    ....    LDR      r0,[r0,#0x118]
        0x0000297c:    e58d0008    ....    STR      r0,[sp,#8]
        0x00002980:    e59d0008    ....    LDR      r0,[sp,#8]
        0x00002984:    e2000040    @...    AND      r0,r0,#0x40
        0x00002988:    e3500000    ..P.    CMP      r0,#0
        0x0000298c:    0a000002    ....    BEQ      0x299c ; uart1ISR + 244
        0x00002990:    e3a00001    ....    MOV      r0,#1
        0x00002994:    e59f1010    ....    LDR      r1,[pc,#16] ; [0x29ac] = 0x3e5c
        0x00002998:    e5c10000    ....    STRB     r0,[r1,#0]
        0x0000299c:    e1a00000    ....    MOV      r0,r0
        0x000029a0:    e8bd801f    ....    POP      {r0-r4,pc}
    $d
        0x000029a4:    00003e71    q>..    DCD    15985
        0x000029a8:    00003e67    g>..    DCD    15975
        0x000029ac:    00003e5c    \>..    DCD    15964
    $a
    i.uart1Initialization
    uart1Initialization
        0x000029b0:    e92d401f    .@-.    PUSH     {r0-r4,lr}
        0x000029b4:    e59f0068    h...    LDR      r0,[pc,#104] ; [0x2a24] = 0xb71b00
        0x000029b8:    e58d0000    ....    STR      r0,[sp,#0]
        0x000029bc:    e59f0064    d...    LDR      r0,[pc,#100] ; [0x2a28] = 0x1c200
        0x000029c0:    e58d0004    ....    STR      r0,[sp,#4]
        0x000029c4:    e3a00001    ....    MOV      r0,#1
        0x000029c8:    e5cd0008    ....    STRB     r0,[sp,#8]
        0x000029cc:    e3a00003    ....    MOV      r0,#3
        0x000029d0:    e5cd0009    ....    STRB     r0,[sp,#9]
        0x000029d4:    e3a00000    ....    MOV      r0,#0
        0x000029d8:    e5cd000a    ....    STRB     r0,[sp,#0xa]
        0x000029dc:    e5cd000b    ....    STRB     r0,[sp,#0xb]
        0x000029e0:    e5cd000c    ....    STRB     r0,[sp,#0xc]
        0x000029e4:    e1a0000d    ....    MOV      r0,sp
        0x000029e8:    eb000454    T...    BL       uartOpen ; 0x3b40
        0x000029ec:    e1a04000    .@..    MOV      r4,r0
        0x000029f0:    e5dd0008    ....    LDRB     r0,[sp,#8]
        0x000029f4:    e3a03000    .0..    MOV      r3,#0
        0x000029f8:    e3a02001    . ..    MOV      r2,#1
        0x000029fc:    e3a01002    ....    MOV      r1,#2
        0x00002a00:    eb00023f    ?...    BL       uartIoctl ; 0x3304
        0x00002a04:    e1a04000    .@..    MOV      r4,r0
        0x00002a08:    e3a0020b    ....    MOV      r0,#0xb0000000
        0x00002a0c:    e59000b0    ....    LDR      r0,[r0,#0xb0]
        0x00002a10:    e3c006ff    ....    BIC      r0,r0,#0xff00000
        0x00002a14:    e3800699    ....    ORR      r0,r0,#0x9900000
        0x00002a18:    e3a0120b    ....    MOV      r1,#0xb0000000
        0x00002a1c:    e58100b0    ....    STR      r0,[r1,#0xb0]
        0x00002a20:    e8bd801f    ....    POP      {r0-r4,pc}
    $d
        0x00002a24:    00b71b00    ....    DCD    12000000
        0x00002a28:    0001c200    ....    DCD    115200
    $a
    i.uart2ISR
    uart2ISR
        0x00002a2c:    e92d401f    .@-.    PUSH     {r0-r4,lr}
        0x00002a30:    e3a0032e    ....    MOV      r0,#0xb8000000
        0x00002a34:    e590021c    ....    LDR      r0,[r0,#0x21c]
        0x00002a38:    e20000ff    ....    AND      r0,r0,#0xff
        0x00002a3c:    e58d000c    ....    STR      r0,[sp,#0xc]
        0x00002a40:    e3a0032e    ....    MOV      r0,#0xb8000000
        0x00002a44:    e5900230    0...    LDR      r0,[r0,#0x230]
        0x00002a48:    e58d0000    ....    STR      r0,[sp,#0]
        0x00002a4c:    e59d000c    ....    LDR      r0,[sp,#0xc]
        0x00002a50:    e2000002    ....    AND      r0,r0,#2
        0x00002a54:    e3500000    ..P.    CMP      r0,#0
        0x00002a58:    0a000001    ....    BEQ      0x2a64 ; uart2ISR + 56
        0x00002a5c:    e3a00002    ....    MOV      r0,#2
        0x00002a60:    ebfffbc1    ....    BL       _uartTransmitChars ; 0x196c
        0x00002a64:    e59d0000    ....    LDR      r0,[sp,#0]
        0x00002a68:    e3500003    ..P.    CMP      r0,#3
        0x00002a6c:    1a000002    ....    BNE      0x2a7c ; uart2ISR + 80
        0x00002a70:    e3a00002    ....    MOV      r0,#2
        0x00002a74:    ebfff804    ....    BL       RS485_HANDLE ; 0xa8c
        0x00002a78:    ea000037    7...    B        0x2b5c ; uart2ISR + 304
        0x00002a7c:    e59d000c    ....    LDR      r0,[sp,#0xc]
        0x00002a80:    e2000011    ....    AND      r0,r0,#0x11
        0x00002a84:    e3500000    ..P.    CMP      r0,#0
        0x00002a88:    0a000001    ....    BEQ      0x2a94 ; uart2ISR + 104
        0x00002a8c:    e3a00002    ....    MOV      r0,#2
        0x00002a90:    ebfffad6    ....    BL       _uartReceiveChars ; 0x15f0
        0x00002a94:    e59d000c    ....    LDR      r0,[sp,#0xc]
        0x00002a98:    e2000004    ....    AND      r0,r0,#4
        0x00002a9c:    e3500000    ..P.    CMP      r0,#0
        0x00002aa0:    0a000009    ....    BEQ      0x2acc ; uart2ISR + 160
        0x00002aa4:    e3a0032e    ....    MOV      r0,#0xb8000000
        0x00002aa8:    e5900218    ....    LDR      r0,[r0,#0x218]
        0x00002aac:    e58d0008    ....    STR      r0,[sp,#8]
        0x00002ab0:    e59d0008    ....    LDR      r0,[sp,#8]
        0x00002ab4:    e2000040    @...    AND      r0,r0,#0x40
        0x00002ab8:    e3500000    ..P.    CMP      r0,#0
        0x00002abc:    0a000002    ....    BEQ      0x2acc ; uart2ISR + 160
        0x00002ac0:    e3a00001    ....    MOV      r0,#1
        0x00002ac4:    e59f1094    ....    LDR      r1,[pc,#148] ; [0x2b60] = 0x3e5d
        0x00002ac8:    e5c10000    ....    STRB     r0,[r1,#0]
        0x00002acc:    e59d000c    ....    LDR      r0,[sp,#0xc]
        0x00002ad0:    e2000008    ....    AND      r0,r0,#8
        0x00002ad4:    e3500000    ..P.    CMP      r0,#0
        0x00002ad8:    0a000010    ....    BEQ      0x2b20 ; uart2ISR + 244
        0x00002adc:    e59f0080    ....    LDR      r0,[pc,#128] ; [0x2b64] = 0x3e71
        0x00002ae0:    e5d00000    ....    LDRB     r0,[r0,#0]
        0x00002ae4:    e3500000    ..P.    CMP      r0,#0
        0x00002ae8:    1a00000a    ....    BNE      0x2b18 ; uart2ISR + 236
        0x00002aec:    e3a0032e    ....    MOV      r0,#0xb8000000
        0x00002af0:    e5900214    ....    LDR      r0,[r0,#0x214]
        0x00002af4:    e58d0004    ....    STR      r0,[sp,#4]
        0x00002af8:    e59d0004    ....    LDR      r0,[sp,#4]
        0x00002afc:    e2000001    ....    AND      r0,r0,#1
        0x00002b00:    e3500000    ..P.    CMP      r0,#0
        0x00002b04:    0a000005    ....    BEQ      0x2b20 ; uart2ISR + 244
        0x00002b08:    e3a00001    ....    MOV      r0,#1
        0x00002b0c:    e59f1054    T...    LDR      r1,[pc,#84] ; [0x2b68] = 0x3e68
        0x00002b10:    e5c10000    ....    STRB     r0,[r1,#0]
        0x00002b14:    ea000001    ....    B        0x2b20 ; uart2ISR + 244
        0x00002b18:    e3a00002    ....    MOV      r0,#2
        0x00002b1c:    ebfff87d    }...    BL       _uartCheckModemStatus ; 0xd18
        0x00002b20:    e59d000c    ....    LDR      r0,[sp,#0xc]
        0x00002b24:    e2000004    ....    AND      r0,r0,#4
        0x00002b28:    e3500000    ..P.    CMP      r0,#0
        0x00002b2c:    0a00000a    ....    BEQ      0x2b5c ; uart2ISR + 304
        0x00002b30:    e3a0032e    ....    MOV      r0,#0xb8000000
        0x00002b34:    e5900218    ....    LDR      r0,[r0,#0x218]
        0x00002b38:    e58d0008    ....    STR      r0,[sp,#8]
        0x00002b3c:    e59d0008    ....    LDR      r0,[sp,#8]
        0x00002b40:    e2000040    @...    AND      r0,r0,#0x40
        0x00002b44:    e3500000    ..P.    CMP      r0,#0
        0x00002b48:    0a000002    ....    BEQ      0x2b58 ; uart2ISR + 300
        0x00002b4c:    e3a00001    ....    MOV      r0,#1
        0x00002b50:    e59f1008    ....    LDR      r1,[pc,#8] ; [0x2b60] = 0x3e5d
        0x00002b54:    e5c10000    ....    STRB     r0,[r1,#0]
        0x00002b58:    e1a00000    ....    MOV      r0,r0
        0x00002b5c:    e8bd801f    ....    POP      {r0-r4,pc}
    $d
        0x00002b60:    00003e5d    ]>..    DCD    15965
        0x00002b64:    00003e71    q>..    DCD    15985
        0x00002b68:    00003e68    h>..    DCD    15976
    $a
    i.uart3ISR
    uart3ISR
        0x00002b6c:    e92d401f    .@-.    PUSH     {r0-r4,lr}
        0x00002b70:    e3a0032e    ....    MOV      r0,#0xb8000000
        0x00002b74:    e590031c    ....    LDR      r0,[r0,#0x31c]
        0x00002b78:    e20000ff    ....    AND      r0,r0,#0xff
        0x00002b7c:    e58d000c    ....    STR      r0,[sp,#0xc]
        0x00002b80:    e3a0032e    ....    MOV      r0,#0xb8000000
        0x00002b84:    e5900330    0...    LDR      r0,[r0,#0x330]
        0x00002b88:    e58d0000    ....    STR      r0,[sp,#0]
        0x00002b8c:    e59d000c    ....    LDR      r0,[sp,#0xc]
        0x00002b90:    e2000002    ....    AND      r0,r0,#2
        0x00002b94:    e3500000    ..P.    CMP      r0,#0
        0x00002b98:    0a000001    ....    BEQ      0x2ba4 ; uart3ISR + 56
        0x00002b9c:    e3a00003    ....    MOV      r0,#3
        0x00002ba0:    ebfffb71    q...    BL       _uartTransmitChars ; 0x196c
        0x00002ba4:    e59d0000    ....    LDR      r0,[sp,#0]
        0x00002ba8:    e3500003    ..P.    CMP      r0,#3
        0x00002bac:    1a000002    ....    BNE      0x2bbc ; uart3ISR + 80
        0x00002bb0:    e3a00003    ....    MOV      r0,#3
        0x00002bb4:    ebfff7b4    ....    BL       RS485_HANDLE ; 0xa8c
        0x00002bb8:    ea000029    )...    B        0x2c64 ; uart3ISR + 248
        0x00002bbc:    e59d000c    ....    LDR      r0,[sp,#0xc]
        0x00002bc0:    e2000011    ....    AND      r0,r0,#0x11
        0x00002bc4:    e3500000    ..P.    CMP      r0,#0
        0x00002bc8:    0a000001    ....    BEQ      0x2bd4 ; uart3ISR + 104
        0x00002bcc:    e3a00003    ....    MOV      r0,#3
        0x00002bd0:    ebfffa86    ....    BL       _uartReceiveChars ; 0x15f0
        0x00002bd4:    e59d000c    ....    LDR      r0,[sp,#0xc]
        0x00002bd8:    e2000008    ....    AND      r0,r0,#8
        0x00002bdc:    e3500000    ..P.    CMP      r0,#0
        0x00002be0:    0a000010    ....    BEQ      0x2c28 ; uart3ISR + 188
        0x00002be4:    e59f007c    |...    LDR      r0,[pc,#124] ; [0x2c68] = 0x3e71
        0x00002be8:    e5d00000    ....    LDRB     r0,[r0,#0]
        0x00002bec:    e3500000    ..P.    CMP      r0,#0
        0x00002bf0:    1a00000a    ....    BNE      0x2c20 ; uart3ISR + 180
        0x00002bf4:    e3a0032e    ....    MOV      r0,#0xb8000000
        0x00002bf8:    e5900314    ....    LDR      r0,[r0,#0x314]
        0x00002bfc:    e58d0004    ....    STR      r0,[sp,#4]
        0x00002c00:    e59d0004    ....    LDR      r0,[sp,#4]
        0x00002c04:    e2000001    ....    AND      r0,r0,#1
        0x00002c08:    e3500000    ..P.    CMP      r0,#0
        0x00002c0c:    0a000005    ....    BEQ      0x2c28 ; uart3ISR + 188
        0x00002c10:    e3a00001    ....    MOV      r0,#1
        0x00002c14:    e59f1050    P...    LDR      r1,[pc,#80] ; [0x2c6c] = 0x3e69
        0x00002c18:    e5c10000    ....    STRB     r0,[r1,#0]
        0x00002c1c:    ea000001    ....    B        0x2c28 ; uart3ISR + 188
        0x00002c20:    e3a00003    ....    MOV      r0,#3
        0x00002c24:    ebfff83b    ;...    BL       _uartCheckModemStatus ; 0xd18
        0x00002c28:    e59d000c    ....    LDR      r0,[sp,#0xc]
        0x00002c2c:    e2000004    ....    AND      r0,r0,#4
        0x00002c30:    e3500000    ..P.    CMP      r0,#0
        0x00002c34:    0a00000a    ....    BEQ      0x2c64 ; uart3ISR + 248
        0x00002c38:    e3a0032e    ....    MOV      r0,#0xb8000000
        0x00002c3c:    e5900318    ....    LDR      r0,[r0,#0x318]
        0x00002c40:    e58d0008    ....    STR      r0,[sp,#8]
        0x00002c44:    e59d0008    ....    LDR      r0,[sp,#8]
        0x00002c48:    e2000040    @...    AND      r0,r0,#0x40
        0x00002c4c:    e3500000    ..P.    CMP      r0,#0
        0x00002c50:    0a000002    ....    BEQ      0x2c60 ; uart3ISR + 244
        0x00002c54:    e3a00001    ....    MOV      r0,#1
        0x00002c58:    e59f1010    ....    LDR      r1,[pc,#16] ; [0x2c70] = 0x3e5e
        0x00002c5c:    e5c10000    ....    STRB     r0,[r1,#0]
        0x00002c60:    e1a00000    ....    MOV      r0,r0
        0x00002c64:    e8bd801f    ....    POP      {r0-r4,pc}
    $d
        0x00002c68:    00003e71    q>..    DCD    15985
        0x00002c6c:    00003e69    i>..    DCD    15977
        0x00002c70:    00003e5e    ^>..    DCD    15966
    $a
    i.uart4ISR
    uart4ISR
        0x00002c74:    e92d401f    .@-.    PUSH     {r0-r4,lr}
        0x00002c78:    e59f00f0    ....    LDR      r0,[pc,#240] ; [0x2d70] = 0xb800041c
        0x00002c7c:    e5900000    ....    LDR      r0,[r0,#0]
        0x00002c80:    e20000ff    ....    AND      r0,r0,#0xff
        0x00002c84:    e58d000c    ....    STR      r0,[sp,#0xc]
        0x00002c88:    e59f00e4    ....    LDR      r0,[pc,#228] ; [0x2d74] = 0xb8000430
        0x00002c8c:    e5900000    ....    LDR      r0,[r0,#0]
        0x00002c90:    e58d0000    ....    STR      r0,[sp,#0]
        0x00002c94:    e59d000c    ....    LDR      r0,[sp,#0xc]
        0x00002c98:    e2000002    ....    AND      r0,r0,#2
        0x00002c9c:    e3500000    ..P.    CMP      r0,#0
        0x00002ca0:    0a000001    ....    BEQ      0x2cac ; uart4ISR + 56
        0x00002ca4:    e3a00004    ....    MOV      r0,#4
        0x00002ca8:    ebfffb2f    /...    BL       _uartTransmitChars ; 0x196c
        0x00002cac:    e59d0000    ....    LDR      r0,[sp,#0]
        0x00002cb0:    e3500003    ..P.    CMP      r0,#3
        0x00002cb4:    1a000002    ....    BNE      0x2cc4 ; uart4ISR + 80
        0x00002cb8:    e3a00004    ....    MOV      r0,#4
        0x00002cbc:    ebfff772    r...    BL       RS485_HANDLE ; 0xa8c
        0x00002cc0:    ea000029    )...    B        0x2d6c ; uart4ISR + 248
        0x00002cc4:    e59d000c    ....    LDR      r0,[sp,#0xc]
        0x00002cc8:    e2000011    ....    AND      r0,r0,#0x11
        0x00002ccc:    e3500000    ..P.    CMP      r0,#0
        0x00002cd0:    0a000001    ....    BEQ      0x2cdc ; uart4ISR + 104
        0x00002cd4:    e3a00004    ....    MOV      r0,#4
        0x00002cd8:    ebfffa44    D...    BL       _uartReceiveChars ; 0x15f0
        0x00002cdc:    e59d000c    ....    LDR      r0,[sp,#0xc]
        0x00002ce0:    e2000008    ....    AND      r0,r0,#8
        0x00002ce4:    e3500000    ..P.    CMP      r0,#0
        0x00002ce8:    0a000010    ....    BEQ      0x2d30 ; uart4ISR + 188
        0x00002cec:    e59f0084    ....    LDR      r0,[pc,#132] ; [0x2d78] = 0x3e71
        0x00002cf0:    e5d00000    ....    LDRB     r0,[r0,#0]
        0x00002cf4:    e3500000    ..P.    CMP      r0,#0
        0x00002cf8:    1a00000a    ....    BNE      0x2d28 ; uart4ISR + 180
        0x00002cfc:    e59f0078    x...    LDR      r0,[pc,#120] ; [0x2d7c] = 0xb8000414
        0x00002d00:    e5900000    ....    LDR      r0,[r0,#0]
        0x00002d04:    e58d0004    ....    STR      r0,[sp,#4]
        0x00002d08:    e59d0004    ....    LDR      r0,[sp,#4]
        0x00002d0c:    e2000001    ....    AND      r0,r0,#1
        0x00002d10:    e3500000    ..P.    CMP      r0,#0
        0x00002d14:    0a000005    ....    BEQ      0x2d30 ; uart4ISR + 188
        0x00002d18:    e3a00001    ....    MOV      r0,#1
        0x00002d1c:    e59f105c    \...    LDR      r1,[pc,#92] ; [0x2d80] = 0x3e6a
        0x00002d20:    e5c10000    ....    STRB     r0,[r1,#0]
        0x00002d24:    ea000001    ....    B        0x2d30 ; uart4ISR + 188
        0x00002d28:    e3a00004    ....    MOV      r0,#4
        0x00002d2c:    ebfff7f9    ....    BL       _uartCheckModemStatus ; 0xd18
        0x00002d30:    e59d000c    ....    LDR      r0,[sp,#0xc]
        0x00002d34:    e2000004    ....    AND      r0,r0,#4
        0x00002d38:    e3500000    ..P.    CMP      r0,#0
        0x00002d3c:    0a00000a    ....    BEQ      0x2d6c ; uart4ISR + 248
        0x00002d40:    e59f003c    <...    LDR      r0,[pc,#60] ; [0x2d84] = 0xb8000418
        0x00002d44:    e5900000    ....    LDR      r0,[r0,#0]
        0x00002d48:    e58d0008    ....    STR      r0,[sp,#8]
        0x00002d4c:    e59d0008    ....    LDR      r0,[sp,#8]
        0x00002d50:    e2000040    @...    AND      r0,r0,#0x40
        0x00002d54:    e3500000    ..P.    CMP      r0,#0
        0x00002d58:    0a000002    ....    BEQ      0x2d68 ; uart4ISR + 244
        0x00002d5c:    e3a00001    ....    MOV      r0,#1
        0x00002d60:    e59f1020     ...    LDR      r1,[pc,#32] ; [0x2d88] = 0x3e5f
        0x00002d64:    e5c10000    ....    STRB     r0,[r1,#0]
        0x00002d68:    e1a00000    ....    MOV      r0,r0
        0x00002d6c:    e8bd801f    ....    POP      {r0-r4,pc}
    $d
        0x00002d70:    b800041c    ....    DCD    3087008796
        0x00002d74:    b8000430    0...    DCD    3087008816
        0x00002d78:    00003e71    q>..    DCD    15985
        0x00002d7c:    b8000414    ....    DCD    3087008788
        0x00002d80:    00003e6a    j>..    DCD    15978
        0x00002d84:    b8000418    ....    DCD    3087008792
        0x00002d88:    00003e5f    _>..    DCD    15967
    $a
    i.uart5ISR
    uart5ISR
        0x00002d8c:    e92d401f    .@-.    PUSH     {r0-r4,lr}
        0x00002d90:    e59f00f0    ....    LDR      r0,[pc,#240] ; [0x2e88] = 0xb800051c
        0x00002d94:    e5900000    ....    LDR      r0,[r0,#0]
        0x00002d98:    e20000ff    ....    AND      r0,r0,#0xff
        0x00002d9c:    e58d000c    ....    STR      r0,[sp,#0xc]
        0x00002da0:    e59f00e4    ....    LDR      r0,[pc,#228] ; [0x2e8c] = 0xb8000530
        0x00002da4:    e5900000    ....    LDR      r0,[r0,#0]
        0x00002da8:    e58d0000    ....    STR      r0,[sp,#0]
        0x00002dac:    e59d000c    ....    LDR      r0,[sp,#0xc]
        0x00002db0:    e2000002    ....    AND      r0,r0,#2
        0x00002db4:    e3500000    ..P.    CMP      r0,#0
        0x00002db8:    0a000001    ....    BEQ      0x2dc4 ; uart5ISR + 56
        0x00002dbc:    e3a00005    ....    MOV      r0,#5
        0x00002dc0:    ebfffae9    ....    BL       _uartTransmitChars ; 0x196c
        0x00002dc4:    e59d0000    ....    LDR      r0,[sp,#0]
        0x00002dc8:    e3500003    ..P.    CMP      r0,#3
        0x00002dcc:    1a000002    ....    BNE      0x2ddc ; uart5ISR + 80
        0x00002dd0:    e3a00005    ....    MOV      r0,#5
        0x00002dd4:    ebfff72c    ,...    BL       RS485_HANDLE ; 0xa8c
        0x00002dd8:    ea000029    )...    B        0x2e84 ; uart5ISR + 248
        0x00002ddc:    e59d000c    ....    LDR      r0,[sp,#0xc]
        0x00002de0:    e2000011    ....    AND      r0,r0,#0x11
        0x00002de4:    e3500000    ..P.    CMP      r0,#0
        0x00002de8:    0a000001    ....    BEQ      0x2df4 ; uart5ISR + 104
        0x00002dec:    e3a00005    ....    MOV      r0,#5
        0x00002df0:    ebfff9fe    ....    BL       _uartReceiveChars ; 0x15f0
        0x00002df4:    e59d000c    ....    LDR      r0,[sp,#0xc]
        0x00002df8:    e2000008    ....    AND      r0,r0,#8
        0x00002dfc:    e3500000    ..P.    CMP      r0,#0
        0x00002e00:    0a000010    ....    BEQ      0x2e48 ; uart5ISR + 188
        0x00002e04:    e59f0084    ....    LDR      r0,[pc,#132] ; [0x2e90] = 0x3e71
        0x00002e08:    e5d00000    ....    LDRB     r0,[r0,#0]
        0x00002e0c:    e3500000    ..P.    CMP      r0,#0
        0x00002e10:    1a00000a    ....    BNE      0x2e40 ; uart5ISR + 180
        0x00002e14:    e59f0078    x...    LDR      r0,[pc,#120] ; [0x2e94] = 0xb8000514
        0x00002e18:    e5900000    ....    LDR      r0,[r0,#0]
        0x00002e1c:    e58d0004    ....    STR      r0,[sp,#4]
        0x00002e20:    e59d0004    ....    LDR      r0,[sp,#4]
        0x00002e24:    e2000001    ....    AND      r0,r0,#1
        0x00002e28:    e3500000    ..P.    CMP      r0,#0
        0x00002e2c:    0a000005    ....    BEQ      0x2e48 ; uart5ISR + 188
        0x00002e30:    e3a00001    ....    MOV      r0,#1
        0x00002e34:    e59f105c    \...    LDR      r1,[pc,#92] ; [0x2e98] = 0x3e6b
        0x00002e38:    e5c10000    ....    STRB     r0,[r1,#0]
        0x00002e3c:    ea000001    ....    B        0x2e48 ; uart5ISR + 188
        0x00002e40:    e3a00005    ....    MOV      r0,#5
        0x00002e44:    ebfff7b3    ....    BL       _uartCheckModemStatus ; 0xd18
        0x00002e48:    e59d000c    ....    LDR      r0,[sp,#0xc]
        0x00002e4c:    e2000004    ....    AND      r0,r0,#4
        0x00002e50:    e3500000    ..P.    CMP      r0,#0
        0x00002e54:    0a00000a    ....    BEQ      0x2e84 ; uart5ISR + 248
        0x00002e58:    e59f003c    <...    LDR      r0,[pc,#60] ; [0x2e9c] = 0xb8000518
        0x00002e5c:    e5900000    ....    LDR      r0,[r0,#0]
        0x00002e60:    e58d0008    ....    STR      r0,[sp,#8]
        0x00002e64:    e59d0008    ....    LDR      r0,[sp,#8]
        0x00002e68:    e2000040    @...    AND      r0,r0,#0x40
        0x00002e6c:    e3500000    ..P.    CMP      r0,#0
        0x00002e70:    0a000002    ....    BEQ      0x2e80 ; uart5ISR + 244
        0x00002e74:    e3a00001    ....    MOV      r0,#1
        0x00002e78:    e59f1020     ...    LDR      r1,[pc,#32] ; [0x2ea0] = 0x3e60
        0x00002e7c:    e5c10000    ....    STRB     r0,[r1,#0]
        0x00002e80:    e1a00000    ....    MOV      r0,r0
        0x00002e84:    e8bd801f    ....    POP      {r0-r4,pc}
    $d
        0x00002e88:    b800051c    ....    DCD    3087009052
        0x00002e8c:    b8000530    0...    DCD    3087009072
        0x00002e90:    00003e71    q>..    DCD    15985
        0x00002e94:    b8000514    ....    DCD    3087009044
        0x00002e98:    00003e6b    k>..    DCD    15979
        0x00002e9c:    b8000518    ....    DCD    3087009048
        0x00002ea0:    00003e60    `>..    DCD    15968
    $a
    i.uart6ISR
    uart6ISR
        0x00002ea4:    e92d401f    .@-.    PUSH     {r0-r4,lr}
        0x00002ea8:    e59f00f0    ....    LDR      r0,[pc,#240] ; [0x2fa0] = 0xb800061c
        0x00002eac:    e5900000    ....    LDR      r0,[r0,#0]
        0x00002eb0:    e20000ff    ....    AND      r0,r0,#0xff
        0x00002eb4:    e58d000c    ....    STR      r0,[sp,#0xc]
        0x00002eb8:    e59f00e4    ....    LDR      r0,[pc,#228] ; [0x2fa4] = 0xb8000630
        0x00002ebc:    e5900000    ....    LDR      r0,[r0,#0]
        0x00002ec0:    e58d0000    ....    STR      r0,[sp,#0]
        0x00002ec4:    e59d000c    ....    LDR      r0,[sp,#0xc]
        0x00002ec8:    e2000002    ....    AND      r0,r0,#2
        0x00002ecc:    e3500000    ..P.    CMP      r0,#0
        0x00002ed0:    0a000001    ....    BEQ      0x2edc ; uart6ISR + 56
        0x00002ed4:    e3a00006    ....    MOV      r0,#6
        0x00002ed8:    ebfffaa3    ....    BL       _uartTransmitChars ; 0x196c
        0x00002edc:    e59d0000    ....    LDR      r0,[sp,#0]
        0x00002ee0:    e3500003    ..P.    CMP      r0,#3
        0x00002ee4:    1a000002    ....    BNE      0x2ef4 ; uart6ISR + 80
        0x00002ee8:    e3a00006    ....    MOV      r0,#6
        0x00002eec:    ebfff6e6    ....    BL       RS485_HANDLE ; 0xa8c
        0x00002ef0:    ea000029    )...    B        0x2f9c ; uart6ISR + 248
        0x00002ef4:    e59d000c    ....    LDR      r0,[sp,#0xc]
        0x00002ef8:    e2000011    ....    AND      r0,r0,#0x11
        0x00002efc:    e3500000    ..P.    CMP      r0,#0
        0x00002f00:    0a000001    ....    BEQ      0x2f0c ; uart6ISR + 104
        0x00002f04:    e3a00006    ....    MOV      r0,#6
        0x00002f08:    ebfff9b8    ....    BL       _uartReceiveChars ; 0x15f0
        0x00002f0c:    e59d000c    ....    LDR      r0,[sp,#0xc]
        0x00002f10:    e2000008    ....    AND      r0,r0,#8
        0x00002f14:    e3500000    ..P.    CMP      r0,#0
        0x00002f18:    0a000010    ....    BEQ      0x2f60 ; uart6ISR + 188
        0x00002f1c:    e59f0084    ....    LDR      r0,[pc,#132] ; [0x2fa8] = 0x3e71
        0x00002f20:    e5d00000    ....    LDRB     r0,[r0,#0]
        0x00002f24:    e3500000    ..P.    CMP      r0,#0
        0x00002f28:    1a00000a    ....    BNE      0x2f58 ; uart6ISR + 180
        0x00002f2c:    e59f0078    x...    LDR      r0,[pc,#120] ; [0x2fac] = 0xb8000614
        0x00002f30:    e5900000    ....    LDR      r0,[r0,#0]
        0x00002f34:    e58d0004    ....    STR      r0,[sp,#4]
        0x00002f38:    e59d0004    ....    LDR      r0,[sp,#4]
        0x00002f3c:    e2000001    ....    AND      r0,r0,#1
        0x00002f40:    e3500000    ..P.    CMP      r0,#0
        0x00002f44:    0a000005    ....    BEQ      0x2f60 ; uart6ISR + 188
        0x00002f48:    e3a00001    ....    MOV      r0,#1
        0x00002f4c:    e59f105c    \...    LDR      r1,[pc,#92] ; [0x2fb0] = 0x3e6c
        0x00002f50:    e5c10000    ....    STRB     r0,[r1,#0]
        0x00002f54:    ea000001    ....    B        0x2f60 ; uart6ISR + 188
        0x00002f58:    e3a00006    ....    MOV      r0,#6
        0x00002f5c:    ebfff76d    m...    BL       _uartCheckModemStatus ; 0xd18
        0x00002f60:    e59d000c    ....    LDR      r0,[sp,#0xc]
        0x00002f64:    e2000004    ....    AND      r0,r0,#4
        0x00002f68:    e3500000    ..P.    CMP      r0,#0
        0x00002f6c:    0a00000a    ....    BEQ      0x2f9c ; uart6ISR + 248
        0x00002f70:    e59f003c    <...    LDR      r0,[pc,#60] ; [0x2fb4] = 0xb8000618
        0x00002f74:    e5900000    ....    LDR      r0,[r0,#0]
        0x00002f78:    e58d0008    ....    STR      r0,[sp,#8]
        0x00002f7c:    e59d0008    ....    LDR      r0,[sp,#8]
        0x00002f80:    e2000040    @...    AND      r0,r0,#0x40
        0x00002f84:    e3500000    ..P.    CMP      r0,#0
        0x00002f88:    0a000002    ....    BEQ      0x2f98 ; uart6ISR + 244
        0x00002f8c:    e3a00001    ....    MOV      r0,#1
        0x00002f90:    e59f1020     ...    LDR      r1,[pc,#32] ; [0x2fb8] = 0x3e61
        0x00002f94:    e5c10000    ....    STRB     r0,[r1,#0]
        0x00002f98:    e1a00000    ....    MOV      r0,r0
        0x00002f9c:    e8bd801f    ....    POP      {r0-r4,pc}
    $d
        0x00002fa0:    b800061c    ....    DCD    3087009308
        0x00002fa4:    b8000630    0...    DCD    3087009328
        0x00002fa8:    00003e71    q>..    DCD    15985
        0x00002fac:    b8000614    ....    DCD    3087009300
        0x00002fb0:    00003e6c    l>..    DCD    15980
        0x00002fb4:    b8000618    ....    DCD    3087009304
        0x00002fb8:    00003e61    a>..    DCD    15969
    $a
    i.uart7ISR
    uart7ISR
        0x00002fbc:    e92d401f    .@-.    PUSH     {r0-r4,lr}
        0x00002fc0:    e59f00f0    ....    LDR      r0,[pc,#240] ; [0x30b8] = 0xb800071c
        0x00002fc4:    e5900000    ....    LDR      r0,[r0,#0]
        0x00002fc8:    e20000ff    ....    AND      r0,r0,#0xff
        0x00002fcc:    e58d000c    ....    STR      r0,[sp,#0xc]
        0x00002fd0:    e59f00e4    ....    LDR      r0,[pc,#228] ; [0x30bc] = 0xb8000730
        0x00002fd4:    e5900000    ....    LDR      r0,[r0,#0]
        0x00002fd8:    e58d0000    ....    STR      r0,[sp,#0]
        0x00002fdc:    e59d000c    ....    LDR      r0,[sp,#0xc]
        0x00002fe0:    e2000002    ....    AND      r0,r0,#2
        0x00002fe4:    e3500000    ..P.    CMP      r0,#0
        0x00002fe8:    0a000001    ....    BEQ      0x2ff4 ; uart7ISR + 56
        0x00002fec:    e3a00007    ....    MOV      r0,#7
        0x00002ff0:    ebfffa5d    ]...    BL       _uartTransmitChars ; 0x196c
        0x00002ff4:    e59d0000    ....    LDR      r0,[sp,#0]
        0x00002ff8:    e3500003    ..P.    CMP      r0,#3
        0x00002ffc:    1a000002    ....    BNE      0x300c ; uart7ISR + 80
        0x00003000:    e3a00007    ....    MOV      r0,#7
        0x00003004:    ebfff6a0    ....    BL       RS485_HANDLE ; 0xa8c
        0x00003008:    ea000029    )...    B        0x30b4 ; uart7ISR + 248
        0x0000300c:    e59d000c    ....    LDR      r0,[sp,#0xc]
        0x00003010:    e2000011    ....    AND      r0,r0,#0x11
        0x00003014:    e3500000    ..P.    CMP      r0,#0
        0x00003018:    0a000001    ....    BEQ      0x3024 ; uart7ISR + 104
        0x0000301c:    e3a00007    ....    MOV      r0,#7
        0x00003020:    ebfff972    r...    BL       _uartReceiveChars ; 0x15f0
        0x00003024:    e59d000c    ....    LDR      r0,[sp,#0xc]
        0x00003028:    e2000008    ....    AND      r0,r0,#8
        0x0000302c:    e3500000    ..P.    CMP      r0,#0
        0x00003030:    0a000010    ....    BEQ      0x3078 ; uart7ISR + 188
        0x00003034:    e59f0084    ....    LDR      r0,[pc,#132] ; [0x30c0] = 0x3e71
        0x00003038:    e5d00000    ....    LDRB     r0,[r0,#0]
        0x0000303c:    e3500000    ..P.    CMP      r0,#0
        0x00003040:    1a00000a    ....    BNE      0x3070 ; uart7ISR + 180
        0x00003044:    e59f0078    x...    LDR      r0,[pc,#120] ; [0x30c4] = 0xb8000714
        0x00003048:    e5900000    ....    LDR      r0,[r0,#0]
        0x0000304c:    e58d0004    ....    STR      r0,[sp,#4]
        0x00003050:    e59d0004    ....    LDR      r0,[sp,#4]
        0x00003054:    e2000001    ....    AND      r0,r0,#1
        0x00003058:    e3500000    ..P.    CMP      r0,#0
        0x0000305c:    0a000005    ....    BEQ      0x3078 ; uart7ISR + 188
        0x00003060:    e3a00001    ....    MOV      r0,#1
        0x00003064:    e59f105c    \...    LDR      r1,[pc,#92] ; [0x30c8] = 0x3e6d
        0x00003068:    e5c10000    ....    STRB     r0,[r1,#0]
        0x0000306c:    ea000001    ....    B        0x3078 ; uart7ISR + 188
        0x00003070:    e3a00007    ....    MOV      r0,#7
        0x00003074:    ebfff727    '...    BL       _uartCheckModemStatus ; 0xd18
        0x00003078:    e59d000c    ....    LDR      r0,[sp,#0xc]
        0x0000307c:    e2000004    ....    AND      r0,r0,#4
        0x00003080:    e3500000    ..P.    CMP      r0,#0
        0x00003084:    0a00000a    ....    BEQ      0x30b4 ; uart7ISR + 248
        0x00003088:    e59f003c    <...    LDR      r0,[pc,#60] ; [0x30cc] = 0xb8000718
        0x0000308c:    e5900000    ....    LDR      r0,[r0,#0]
        0x00003090:    e58d0008    ....    STR      r0,[sp,#8]
        0x00003094:    e59d0008    ....    LDR      r0,[sp,#8]
        0x00003098:    e2000040    @...    AND      r0,r0,#0x40
        0x0000309c:    e3500000    ..P.    CMP      r0,#0
        0x000030a0:    0a000002    ....    BEQ      0x30b0 ; uart7ISR + 244
        0x000030a4:    e3a00001    ....    MOV      r0,#1
        0x000030a8:    e59f1020     ...    LDR      r1,[pc,#32] ; [0x30d0] = 0x3e62
        0x000030ac:    e5c10000    ....    STRB     r0,[r1,#0]
        0x000030b0:    e1a00000    ....    MOV      r0,r0
        0x000030b4:    e8bd801f    ....    POP      {r0-r4,pc}
    $d
        0x000030b8:    b800071c    ....    DCD    3087009564
        0x000030bc:    b8000730    0...    DCD    3087009584
        0x000030c0:    00003e71    q>..    DCD    15985
        0x000030c4:    b8000714    ....    DCD    3087009556
        0x000030c8:    00003e6d    m>..    DCD    15981
        0x000030cc:    b8000718    ....    DCD    3087009560
        0x000030d0:    00003e62    b>..    DCD    15970
    $a
    i.uart8ISR
    uart8ISR
        0x000030d4:    e92d401f    .@-.    PUSH     {r0-r4,lr}
        0x000030d8:    e59f00f0    ....    LDR      r0,[pc,#240] ; [0x31d0] = 0xb800081c
        0x000030dc:    e5900000    ....    LDR      r0,[r0,#0]
        0x000030e0:    e20000ff    ....    AND      r0,r0,#0xff
        0x000030e4:    e58d000c    ....    STR      r0,[sp,#0xc]
        0x000030e8:    e59f00e4    ....    LDR      r0,[pc,#228] ; [0x31d4] = 0xb8000830
        0x000030ec:    e5900000    ....    LDR      r0,[r0,#0]
        0x000030f0:    e58d0000    ....    STR      r0,[sp,#0]
        0x000030f4:    e59d000c    ....    LDR      r0,[sp,#0xc]
        0x000030f8:    e2000002    ....    AND      r0,r0,#2
        0x000030fc:    e3500000    ..P.    CMP      r0,#0
        0x00003100:    0a000001    ....    BEQ      0x310c ; uart8ISR + 56
        0x00003104:    e3a00008    ....    MOV      r0,#8
        0x00003108:    ebfffa17    ....    BL       _uartTransmitChars ; 0x196c
        0x0000310c:    e59d0000    ....    LDR      r0,[sp,#0]
        0x00003110:    e3500003    ..P.    CMP      r0,#3
        0x00003114:    1a000002    ....    BNE      0x3124 ; uart8ISR + 80
        0x00003118:    e3a00008    ....    MOV      r0,#8
        0x0000311c:    ebfff65a    Z...    BL       RS485_HANDLE ; 0xa8c
        0x00003120:    ea000029    )...    B        0x31cc ; uart8ISR + 248
        0x00003124:    e59d000c    ....    LDR      r0,[sp,#0xc]
        0x00003128:    e2000011    ....    AND      r0,r0,#0x11
        0x0000312c:    e3500000    ..P.    CMP      r0,#0
        0x00003130:    0a000001    ....    BEQ      0x313c ; uart8ISR + 104
        0x00003134:    e3a00008    ....    MOV      r0,#8
        0x00003138:    ebfff92c    ,...    BL       _uartReceiveChars ; 0x15f0
        0x0000313c:    e59d000c    ....    LDR      r0,[sp,#0xc]
        0x00003140:    e2000008    ....    AND      r0,r0,#8
        0x00003144:    e3500000    ..P.    CMP      r0,#0
        0x00003148:    0a000010    ....    BEQ      0x3190 ; uart8ISR + 188
        0x0000314c:    e59f0084    ....    LDR      r0,[pc,#132] ; [0x31d8] = 0x3e71
        0x00003150:    e5d00000    ....    LDRB     r0,[r0,#0]
        0x00003154:    e3500000    ..P.    CMP      r0,#0
        0x00003158:    1a00000a    ....    BNE      0x3188 ; uart8ISR + 180
        0x0000315c:    e59f0078    x...    LDR      r0,[pc,#120] ; [0x31dc] = 0xb8000814
        0x00003160:    e5900000    ....    LDR      r0,[r0,#0]
        0x00003164:    e58d0004    ....    STR      r0,[sp,#4]
        0x00003168:    e59d0004    ....    LDR      r0,[sp,#4]
        0x0000316c:    e2000001    ....    AND      r0,r0,#1
        0x00003170:    e3500000    ..P.    CMP      r0,#0
        0x00003174:    0a000005    ....    BEQ      0x3190 ; uart8ISR + 188
        0x00003178:    e3a00001    ....    MOV      r0,#1
        0x0000317c:    e59f105c    \...    LDR      r1,[pc,#92] ; [0x31e0] = 0x3e6e
        0x00003180:    e5c10000    ....    STRB     r0,[r1,#0]
        0x00003184:    ea000001    ....    B        0x3190 ; uart8ISR + 188
        0x00003188:    e3a00008    ....    MOV      r0,#8
        0x0000318c:    ebfff6e1    ....    BL       _uartCheckModemStatus ; 0xd18
        0x00003190:    e59d000c    ....    LDR      r0,[sp,#0xc]
        0x00003194:    e2000004    ....    AND      r0,r0,#4
        0x00003198:    e3500000    ..P.    CMP      r0,#0
        0x0000319c:    0a00000a    ....    BEQ      0x31cc ; uart8ISR + 248
        0x000031a0:    e59f003c    <...    LDR      r0,[pc,#60] ; [0x31e4] = 0xb8000818
        0x000031a4:    e5900000    ....    LDR      r0,[r0,#0]
        0x000031a8:    e58d0008    ....    STR      r0,[sp,#8]
        0x000031ac:    e59d0008    ....    LDR      r0,[sp,#8]
        0x000031b0:    e2000040    @...    AND      r0,r0,#0x40
        0x000031b4:    e3500000    ..P.    CMP      r0,#0
        0x000031b8:    0a000002    ....    BEQ      0x31c8 ; uart8ISR + 244
        0x000031bc:    e3a00001    ....    MOV      r0,#1
        0x000031c0:    e59f1020     ...    LDR      r1,[pc,#32] ; [0x31e8] = 0x3e63
        0x000031c4:    e5c10000    ....    STRB     r0,[r1,#0]
        0x000031c8:    e1a00000    ....    MOV      r0,r0
        0x000031cc:    e8bd801f    ....    POP      {r0-r4,pc}
    $d
        0x000031d0:    b800081c    ....    DCD    3087009820
        0x000031d4:    b8000830    0...    DCD    3087009840
        0x000031d8:    00003e71    q>..    DCD    15985
        0x000031dc:    b8000814    ....    DCD    3087009812
        0x000031e0:    00003e6e    n>..    DCD    15982
        0x000031e4:    b8000818    ....    DCD    3087009816
        0x000031e8:    00003e63    c>..    DCD    15971
    $a
    i.uart9ISR
    uart9ISR
        0x000031ec:    e92d401f    .@-.    PUSH     {r0-r4,lr}
        0x000031f0:    e59f00f0    ....    LDR      r0,[pc,#240] ; [0x32e8] = 0xb800091c
        0x000031f4:    e5900000    ....    LDR      r0,[r0,#0]
        0x000031f8:    e20000ff    ....    AND      r0,r0,#0xff
        0x000031fc:    e58d000c    ....    STR      r0,[sp,#0xc]
        0x00003200:    e59f00e4    ....    LDR      r0,[pc,#228] ; [0x32ec] = 0xb8000930
        0x00003204:    e5900000    ....    LDR      r0,[r0,#0]
        0x00003208:    e58d0000    ....    STR      r0,[sp,#0]
        0x0000320c:    e59d000c    ....    LDR      r0,[sp,#0xc]
        0x00003210:    e2000002    ....    AND      r0,r0,#2
        0x00003214:    e3500000    ..P.    CMP      r0,#0
        0x00003218:    0a000001    ....    BEQ      0x3224 ; uart9ISR + 56
        0x0000321c:    e3a00009    ....    MOV      r0,#9
        0x00003220:    ebfff9d1    ....    BL       _uartTransmitChars ; 0x196c
        0x00003224:    e59d0000    ....    LDR      r0,[sp,#0]
        0x00003228:    e3500003    ..P.    CMP      r0,#3
        0x0000322c:    1a000002    ....    BNE      0x323c ; uart9ISR + 80
        0x00003230:    e3a00009    ....    MOV      r0,#9
        0x00003234:    ebfff614    ....    BL       RS485_HANDLE ; 0xa8c
        0x00003238:    ea000029    )...    B        0x32e4 ; uart9ISR + 248
        0x0000323c:    e59d000c    ....    LDR      r0,[sp,#0xc]
        0x00003240:    e2000011    ....    AND      r0,r0,#0x11
        0x00003244:    e3500000    ..P.    CMP      r0,#0
        0x00003248:    0a000001    ....    BEQ      0x3254 ; uart9ISR + 104
        0x0000324c:    e3a00009    ....    MOV      r0,#9
        0x00003250:    ebfff8e6    ....    BL       _uartReceiveChars ; 0x15f0
        0x00003254:    e59d000c    ....    LDR      r0,[sp,#0xc]
        0x00003258:    e2000008    ....    AND      r0,r0,#8
        0x0000325c:    e3500000    ..P.    CMP      r0,#0
        0x00003260:    0a000010    ....    BEQ      0x32a8 ; uart9ISR + 188
        0x00003264:    e59f0084    ....    LDR      r0,[pc,#132] ; [0x32f0] = 0x3e71
        0x00003268:    e5d00000    ....    LDRB     r0,[r0,#0]
        0x0000326c:    e3500000    ..P.    CMP      r0,#0
        0x00003270:    1a00000a    ....    BNE      0x32a0 ; uart9ISR + 180
        0x00003274:    e59f0078    x...    LDR      r0,[pc,#120] ; [0x32f4] = 0xb8000914
        0x00003278:    e5900000    ....    LDR      r0,[r0,#0]
        0x0000327c:    e58d0004    ....    STR      r0,[sp,#4]
        0x00003280:    e59d0004    ....    LDR      r0,[sp,#4]
        0x00003284:    e2000001    ....    AND      r0,r0,#1
        0x00003288:    e3500000    ..P.    CMP      r0,#0
        0x0000328c:    0a000005    ....    BEQ      0x32a8 ; uart9ISR + 188
        0x00003290:    e3a00001    ....    MOV      r0,#1
        0x00003294:    e59f105c    \...    LDR      r1,[pc,#92] ; [0x32f8] = 0x3e6f
        0x00003298:    e5c10000    ....    STRB     r0,[r1,#0]
        0x0000329c:    ea000001    ....    B        0x32a8 ; uart9ISR + 188
        0x000032a0:    e3a00009    ....    MOV      r0,#9
        0x000032a4:    ebfff69b    ....    BL       _uartCheckModemStatus ; 0xd18
        0x000032a8:    e59d000c    ....    LDR      r0,[sp,#0xc]
        0x000032ac:    e2000004    ....    AND      r0,r0,#4
        0x000032b0:    e3500000    ..P.    CMP      r0,#0
        0x000032b4:    0a00000a    ....    BEQ      0x32e4 ; uart9ISR + 248
        0x000032b8:    e59f003c    <...    LDR      r0,[pc,#60] ; [0x32fc] = 0xb8000918
        0x000032bc:    e5900000    ....    LDR      r0,[r0,#0]
        0x000032c0:    e58d0008    ....    STR      r0,[sp,#8]
        0x000032c4:    e59d0008    ....    LDR      r0,[sp,#8]
        0x000032c8:    e2000040    @...    AND      r0,r0,#0x40
        0x000032cc:    e3500000    ..P.    CMP      r0,#0
        0x000032d0:    0a000002    ....    BEQ      0x32e0 ; uart9ISR + 244
        0x000032d4:    e3a00001    ....    MOV      r0,#1
        0x000032d8:    e59f1020     ...    LDR      r1,[pc,#32] ; [0x3300] = 0x3e64
        0x000032dc:    e5c10000    ....    STRB     r0,[r1,#0]
        0x000032e0:    e1a00000    ....    MOV      r0,r0
        0x000032e4:    e8bd801f    ....    POP      {r0-r4,pc}
    $d
        0x000032e8:    b800091c    ....    DCD    3087010076
        0x000032ec:    b8000930    0...    DCD    3087010096
        0x000032f0:    00003e71    q>..    DCD    15985
        0x000032f4:    b8000914    ....    DCD    3087010068
        0x000032f8:    00003e6f    o>..    DCD    15983
        0x000032fc:    b8000918    ....    DCD    3087010072
        0x00003300:    00003e64    d>..    DCD    15972
    $a
    i.uartIoctl
    uartIoctl
        0x00003304:    e92d5ff0    ._-.    PUSH     {r4-r12,lr}
        0x00003308:    e1a06000    .`..    MOV      r6,r0
        0x0000330c:    e1a0a001    ....    MOV      r10,r1
        0x00003310:    e1a04002    .@..    MOV      r4,r2
        0x00003314:    e1a09003    ....    MOV      r9,r3
        0x00003318:    e1a05406    .T..    LSL      r5,r6,#8
        0x0000331c:    e3560000    ..V.    CMP      r6,#0
        0x00003320:    ba000001    ....    BLT      0x332c ; uartIoctl + 40
        0x00003324:    e356000a    ..V.    CMP      r6,#0xa
        0x00003328:    da000001    ....    BLE      0x3334 ; uartIoctl + 48
        0x0000332c:    e59f079c    ....    LDR      r0,[pc,#1948] ; [0x3ad0] = 0xffff1702
        0x00003330:    e8bd9ff0    ....    POP      {r4-r12,pc}
        0x00003334:    e0860086    ....    ADD      r0,r6,r6,LSL #1
        0x00003338:    e59f1794    ....    LDR      r1,[pc,#1940] ; [0x3ad4] = 0x28000
        0x0000333c:    e0817200    .r..    ADD      r7,r1,r0,LSL #4
        0x00003340:    e5d7001e    ....    LDRB     r0,[r7,#0x1e]
        0x00003344:    e3500000    ..P.    CMP      r0,#0
        0x00003348:    1a000005    ....    BNE      0x3364 ; uartIoctl + 96
        0x0000334c:    e35a0008    ..Z.    CMP      r10,#8
        0x00003350:    0a000003    ....    BEQ      0x3364 ; uartIoctl + 96
        0x00003354:    e35a0007    ..Z.    CMP      r10,#7
        0x00003358:    0a000001    ....    BEQ      0x3364 ; uartIoctl + 96
        0x0000335c:    e59f0774    t...    LDR      r0,[pc,#1908] ; [0x3ad8] = 0xffff1703
        0x00003360:    eafffff2    ....    B        0x3330 ; uartIoctl + 44
        0x00003364:    e35a0020     .Z.    CMP      r10,#0x20
        0x00003368:    308ff10a    ...0    ADDCC    pc,pc,r10,LSL #2
        0x0000336c:    ea0001d1    ....    B        0x3ab8 ; uartIoctl + 1972
        0x00003370:    ea0001d0    ....    B        0x3ab8 ; uartIoctl + 1972
        0x00003374:    ea00001d    ....    B        0x33f0 ; uartIoctl + 236
        0x00003378:    ea00002c    ,...    B        0x3430 ; uartIoctl + 300
        0x0000337c:    ea000041    A...    B        0x3488 ; uartIoctl + 388
        0x00003380:    ea000046    F...    B        0x34a0 ; uartIoctl + 412
        0x00003384:    ea0001cb    ....    B        0x3ab8 ; uartIoctl + 1972
        0x00003388:    ea00004d    M...    B        0x34c4 ; uartIoctl + 448
        0x0000338c:    ea000057    W...    B        0x34f0 ; uartIoctl + 492
        0x00003390:    ea00005b    [...    B        0x3504 ; uartIoctl + 512
        0x00003394:    ea0001c7    ....    B        0x3ab8 ; uartIoctl + 1972
        0x00003398:    ea0001c6    ....    B        0x3ab8 ; uartIoctl + 1972
        0x0000339c:    ea0001c5    ....    B        0x3ab8 ; uartIoctl + 1972
        0x000033a0:    ea0000df    ....    B        0x3724 ; uartIoctl + 1056
        0x000033a4:    ea0000ee    ....    B        0x3764 ; uartIoctl + 1120
        0x000033a8:    ea0000ff    ....    B        0x37ac ; uartIoctl + 1192
        0x000033ac:    ea000068    h...    B        0x3554 ; uartIoctl + 592
        0x000033b0:    ea0000c7    ....    B        0x36d4 ; uartIoctl + 976
        0x000033b4:    ea000056    V...    B        0x3514 ; uartIoctl + 528
        0x000033b8:    ea000145    E...    B        0x38d4 ; uartIoctl + 1488
        0x000033bc:    ea000161    a...    B        0x3948 ; uartIoctl + 1604
        0x000033c0:    ea0001bc    ....    B        0x3ab8 ; uartIoctl + 1972
        0x000033c4:    ea0001bb    ....    B        0x3ab8 ; uartIoctl + 1972
        0x000033c8:    ea0001ba    ....    B        0x3ab8 ; uartIoctl + 1972
        0x000033cc:    ea0001b9    ....    B        0x3ab8 ; uartIoctl + 1972
        0x000033d0:    ea000168    h...    B        0x3978 ; uartIoctl + 1652
        0x000033d4:    ea00016c    l...    B        0x398c ; uartIoctl + 1672
        0x000033d8:    ea000171    q...    B        0x39a4 ; uartIoctl + 1696
        0x000033dc:    ea00017e    ~...    B        0x39dc ; uartIoctl + 1752
        0x000033e0:    ea000194    ....    B        0x3a38 ; uartIoctl + 1844
        0x000033e4:    ea00019e    ....    B        0x3a64 ; uartIoctl + 1888
        0x000033e8:    ea0001a1    ....    B        0x3a74 ; uartIoctl + 1904
        0x000033ec:    ea0001a5    ....    B        0x3a88 ; uartIoctl + 1924
        0x000033f0:    e1a00000    ....    MOV      r0,r0
        0x000033f4:    e3540001    ..T.    CMP      r4,#1
        0x000033f8:    1a000002    ....    BNE      0x3408 ; uartIoctl + 260
        0x000033fc:    e3a00001    ....    MOV      r0,#1
        0x00003400:    e5c7001c    ....    STRB     r0,[r7,#0x1c]
        0x00003404:    ea000008    ....    B        0x342c ; uartIoctl + 296
        0x00003408:    e3540000    ..T.    CMP      r4,#0
        0x0000340c:    1a000002    ....    BNE      0x341c ; uartIoctl + 280
        0x00003410:    e3a00000    ....    MOV      r0,#0
        0x00003414:    e5c7001c    ....    STRB     r0,[r7,#0x1c]
        0x00003418:    ea000003    ....    B        0x342c ; uartIoctl + 296
        0x0000341c:    e3e0000b    ....    MVN      r0,#0xb
        0x00003420:    e587002c    ,...    STR      r0,[r7,#0x2c]
        0x00003424:    e59f06ac    ....    LDR      r0,[pc,#1708] ; [0x3ad8] = 0xffff1703
        0x00003428:    eaffffc0    ....    B        0x3330 ; uartIoctl + 44
        0x0000342c:    ea0001a4    ....    B        0x3ac4 ; uartIoctl + 1984
        0x00003430:    e1a00000    ....    MOV      r0,r0
        0x00003434:    e3540001    ..T.    CMP      r4,#1
        0x00003438:    1a000005    ....    BNE      0x3454 ; uartIoctl + 336
        0x0000343c:    e3a00001    ....    MOV      r0,#1
        0x00003440:    e5c7001d    ....    STRB     r0,[r7,#0x1d]
        0x00003444:    e3a01001    ....    MOV      r1,#1
        0x00003448:    e1a00006    ....    MOV      r0,r6
        0x0000344c:    ebfff721    !...    BL       _uartEnableInterrupt ; 0x10d8
        0x00003450:    ea00000b    ....    B        0x3484 ; uartIoctl + 384
        0x00003454:    e3540000    ..T.    CMP      r4,#0
        0x00003458:    1a000005    ....    BNE      0x3474 ; uartIoctl + 368
        0x0000345c:    e3a00000    ....    MOV      r0,#0
        0x00003460:    e5c7001d    ....    STRB     r0,[r7,#0x1d]
        0x00003464:    e3a01001    ....    MOV      r1,#1
        0x00003468:    e1a00006    ....    MOV      r0,r6
        0x0000346c:    ebfff709    ....    BL       _uartDisableInterrupt ; 0x1098
        0x00003470:    ea000003    ....    B        0x3484 ; uartIoctl + 384
        0x00003474:    e3e0000b    ....    MVN      r0,#0xb
        0x00003478:    e587002c    ,...    STR      r0,[r7,#0x2c]
        0x0000347c:    e59f0654    T...    LDR      r0,[pc,#1620] ; [0x3ad8] = 0xffff1703
        0x00003480:    eaffffaa    ....    B        0x3330 ; uartIoctl + 44
        0x00003484:    ea00018e    ....    B        0x3ac4 ; uartIoctl + 1984
        0x00003488:    e1a00000    ....    MOV      r0,r0
        0x0000348c:    e3a02030    0 ..    MOV      r2,#0x30
        0x00003490:    e1a01007    ....    MOV      r1,r7
        0x00003494:    e1a00004    ....    MOV      r0,r4
        0x00003498:    ebfff393    ....    BL       __aeabi_memcpy ; 0x2ec
        0x0000349c:    ea000188    ....    B        0x3ac4 ; uartIoctl + 1984
        0x000034a0:    e1a00000    ....    MOV      r0,r0
        0x000034a4:    e1a00004    ....    MOV      r0,r4
        0x000034a8:    ebfff643    C...    BL       _uartConfigureUART ; 0xdbc
        0x000034ac:    e250b000    ..P.    SUBS     r11,r0,#0
        0x000034b0:    aa000002    ....    BGE      0x34c0 ; uartIoctl + 444
        0x000034b4:    e587b02c    ,...    STR      r11,[r7,#0x2c]
        0x000034b8:    e59f0618    ....    LDR      r0,[pc,#1560] ; [0x3ad8] = 0xffff1703
        0x000034bc:    eaffff9b    ....    B        0x3330 ; uartIoctl + 44
        0x000034c0:    ea00017f    ....    B        0x3ac4 ; uartIoctl + 1984
        0x000034c4:    e1a00000    ....    MOV      r0,r0
        0x000034c8:    e1a02009    . ..    MOV      r2,r9
        0x000034cc:    e1a01004    ....    MOV      r1,r4
        0x000034d0:    e1a00006    ....    MOV      r0,r6
        0x000034d4:    ebfff819    ....    BL       _uartPerformIrDA ; 0x1540
        0x000034d8:    e250b000    ..P.    SUBS     r11,r0,#0
        0x000034dc:    aa000002    ....    BGE      0x34ec ; uartIoctl + 488
        0x000034e0:    e587b02c    ,...    STR      r11,[r7,#0x2c]
        0x000034e4:    e59f05ec    ....    LDR      r0,[pc,#1516] ; [0x3ad8] = 0xffff1703
        0x000034e8:    eaffff90    ....    B        0x3330 ; uartIoctl + 44
        0x000034ec:    ea000174    t...    B        0x3ac4 ; uartIoctl + 1984
        0x000034f0:    e1a00000    ....    MOV      r0,r0
        0x000034f4:    e1a01004    ....    MOV      r1,r4
        0x000034f8:    e1a00006    ....    MOV      r0,r6
        0x000034fc:    ebfff6fe    ....    BL       _uartGetRegisterValue ; 0x10fc
        0x00003500:    eaffff8a    ....    B        0x3330 ; uartIoctl + 44
        0x00003504:    e1a00000    ....    MOV      r0,r0
        0x00003508:    e597002c    ,...    LDR      r0,[r7,#0x2c]
        0x0000350c:    e5840000    ....    STR      r0,[r4,#0]
        0x00003510:    ea00016b    k...    B        0x3ac4 ; uartIoctl + 1984
        0x00003514:    e1a00000    ....    MOV      r0,r0
        0x00003518:    e3540000    ..T.    CMP      r4,#0
        0x0000351c:    1a000003    ....    BNE      0x3530 ; uartIoctl + 556
        0x00003520:    e3a01008    ....    MOV      r1,#8
        0x00003524:    e1a00006    ....    MOV      r0,r6
        0x00003528:    ebfff6ea    ....    BL       _uartEnableInterrupt ; 0x10d8
        0x0000352c:    ea000007    ....    B        0x3550 ; uartIoctl + 588
        0x00003530:    e3540001    ..T.    CMP      r4,#1
        0x00003534:    1a000003    ....    BNE      0x3548 ; uartIoctl + 580
        0x00003538:    e3a01008    ....    MOV      r1,#8
        0x0000353c:    e1a00006    ....    MOV      r0,r6
        0x00003540:    ebfff6d4    ....    BL       _uartDisableInterrupt ; 0x1098
        0x00003544:    ea000001    ....    B        0x3550 ; uartIoctl + 588
        0x00003548:    e59f0588    ....    LDR      r0,[pc,#1416] ; [0x3ad8] = 0xffff1703
        0x0000354c:    eaffff77    w...    B        0x3330 ; uartIoctl + 44
        0x00003550:    ea00015b    [...    B        0x3ac4 ; uartIoctl + 1984
        0x00003554:    e1a00000    ....    MOV      r0,r0
        0x00003558:    e3560001    ..V.    CMP      r6,#1
        0x0000355c:    1a000006    ....    BNE      0x357c ; uartIoctl + 632
        0x00003560:    e59f0574    t...    LDR      r0,[pc,#1396] ; [0x3adc] = 0x3e67
        0x00003564:    e5d00000    ....    LDRB     r0,[r0,#0]
        0x00003568:    e5840000    ....    STR      r0,[r4,#0]
        0x0000356c:    e3a00000    ....    MOV      r0,#0
        0x00003570:    e59f1564    d...    LDR      r1,[pc,#1380] ; [0x3adc] = 0x3e67
        0x00003574:    e5c10000    ....    STRB     r0,[r1,#0]
        0x00003578:    ea00004f    O...    B        0x36bc ; uartIoctl + 952
        0x0000357c:    e3560002    ..V.    CMP      r6,#2
        0x00003580:    1a000006    ....    BNE      0x35a0 ; uartIoctl + 668
        0x00003584:    e59f0554    T...    LDR      r0,[pc,#1364] ; [0x3ae0] = 0x3e68
        0x00003588:    e5d00000    ....    LDRB     r0,[r0,#0]
        0x0000358c:    e5840000    ....    STR      r0,[r4,#0]
        0x00003590:    e3a00000    ....    MOV      r0,#0
        0x00003594:    e59f1544    D...    LDR      r1,[pc,#1348] ; [0x3ae0] = 0x3e68
        0x00003598:    e5c10000    ....    STRB     r0,[r1,#0]
        0x0000359c:    ea000046    F...    B        0x36bc ; uartIoctl + 952
        0x000035a0:    e3560003    ..V.    CMP      r6,#3
        0x000035a4:    1a000006    ....    BNE      0x35c4 ; uartIoctl + 704
        0x000035a8:    e59f0534    4...    LDR      r0,[pc,#1332] ; [0x3ae4] = 0x3e69
        0x000035ac:    e5d00000    ....    LDRB     r0,[r0,#0]
        0x000035b0:    e5840000    ....    STR      r0,[r4,#0]
        0x000035b4:    e3a00000    ....    MOV      r0,#0
        0x000035b8:    e59f1524    $...    LDR      r1,[pc,#1316] ; [0x3ae4] = 0x3e69
        0x000035bc:    e5c10000    ....    STRB     r0,[r1,#0]
        0x000035c0:    ea00003d    =...    B        0x36bc ; uartIoctl + 952
        0x000035c4:    e3560004    ..V.    CMP      r6,#4
        0x000035c8:    1a000006    ....    BNE      0x35e8 ; uartIoctl + 740
        0x000035cc:    e59f0514    ....    LDR      r0,[pc,#1300] ; [0x3ae8] = 0x3e6a
        0x000035d0:    e5d00000    ....    LDRB     r0,[r0,#0]
        0x000035d4:    e5840000    ....    STR      r0,[r4,#0]
        0x000035d8:    e3a00000    ....    MOV      r0,#0
        0x000035dc:    e59f1504    ....    LDR      r1,[pc,#1284] ; [0x3ae8] = 0x3e6a
        0x000035e0:    e5c10000    ....    STRB     r0,[r1,#0]
        0x000035e4:    ea000034    4...    B        0x36bc ; uartIoctl + 952
        0x000035e8:    e3560005    ..V.    CMP      r6,#5
        0x000035ec:    1a000006    ....    BNE      0x360c ; uartIoctl + 776
        0x000035f0:    e59f04f4    ....    LDR      r0,[pc,#1268] ; [0x3aec] = 0x3e6b
        0x000035f4:    e5d00000    ....    LDRB     r0,[r0,#0]
        0x000035f8:    e5840000    ....    STR      r0,[r4,#0]
        0x000035fc:    e3a00000    ....    MOV      r0,#0
        0x00003600:    e59f14e4    ....    LDR      r1,[pc,#1252] ; [0x3aec] = 0x3e6b
        0x00003604:    e5c10000    ....    STRB     r0,[r1,#0]
        0x00003608:    ea00002b    +...    B        0x36bc ; uartIoctl + 952
        0x0000360c:    e3560006    ..V.    CMP      r6,#6
        0x00003610:    1a000006    ....    BNE      0x3630 ; uartIoctl + 812
        0x00003614:    e59f04d4    ....    LDR      r0,[pc,#1236] ; [0x3af0] = 0x3e6c
        0x00003618:    e5d00000    ....    LDRB     r0,[r0,#0]
        0x0000361c:    e5840000    ....    STR      r0,[r4,#0]
        0x00003620:    e3a00000    ....    MOV      r0,#0
        0x00003624:    e59f14c4    ....    LDR      r1,[pc,#1220] ; [0x3af0] = 0x3e6c
        0x00003628:    e5c10000    ....    STRB     r0,[r1,#0]
        0x0000362c:    ea000022    "...    B        0x36bc ; uartIoctl + 952
        0x00003630:    e3560007    ..V.    CMP      r6,#7
        0x00003634:    1a000006    ....    BNE      0x3654 ; uartIoctl + 848
        0x00003638:    e59f04b4    ....    LDR      r0,[pc,#1204] ; [0x3af4] = 0x3e6d
        0x0000363c:    e5d00000    ....    LDRB     r0,[r0,#0]
        0x00003640:    e5840000    ....    STR      r0,[r4,#0]
        0x00003644:    e3a00000    ....    MOV      r0,#0
        0x00003648:    e59f14a4    ....    LDR      r1,[pc,#1188] ; [0x3af4] = 0x3e6d
        0x0000364c:    e5c10000    ....    STRB     r0,[r1,#0]
        0x00003650:    ea000019    ....    B        0x36bc ; uartIoctl + 952
        0x00003654:    e3560008    ..V.    CMP      r6,#8
        0x00003658:    1a000006    ....    BNE      0x3678 ; uartIoctl + 884
        0x0000365c:    e59f0494    ....    LDR      r0,[pc,#1172] ; [0x3af8] = 0x3e6e
        0x00003660:    e5d00000    ....    LDRB     r0,[r0,#0]
        0x00003664:    e5840000    ....    STR      r0,[r4,#0]
        0x00003668:    e3a00000    ....    MOV      r0,#0
        0x0000366c:    e59f1484    ....    LDR      r1,[pc,#1156] ; [0x3af8] = 0x3e6e
        0x00003670:    e5c10000    ....    STRB     r0,[r1,#0]
        0x00003674:    ea000010    ....    B        0x36bc ; uartIoctl + 952
        0x00003678:    e3560009    ..V.    CMP      r6,#9
        0x0000367c:    1a000006    ....    BNE      0x369c ; uartIoctl + 920
        0x00003680:    e59f0474    t...    LDR      r0,[pc,#1140] ; [0x3afc] = 0x3e6f
        0x00003684:    e5d00000    ....    LDRB     r0,[r0,#0]
        0x00003688:    e5840000    ....    STR      r0,[r4,#0]
        0x0000368c:    e3a00000    ....    MOV      r0,#0
        0x00003690:    e59f1464    d...    LDR      r1,[pc,#1124] ; [0x3afc] = 0x3e6f
        0x00003694:    e5c10000    ....    STRB     r0,[r1,#0]
        0x00003698:    ea000007    ....    B        0x36bc ; uartIoctl + 952
        0x0000369c:    e356000a    ..V.    CMP      r6,#0xa
        0x000036a0:    1a000005    ....    BNE      0x36bc ; uartIoctl + 952
        0x000036a4:    e59f0454    T...    LDR      r0,[pc,#1108] ; [0x3b00] = 0x3e70
        0x000036a8:    e5d00000    ....    LDRB     r0,[r0,#0]
        0x000036ac:    e5840000    ....    STR      r0,[r4,#0]
        0x000036b0:    e3a00000    ....    MOV      r0,#0
        0x000036b4:    e59f1444    D...    LDR      r1,[pc,#1092] ; [0x3b00] = 0x3e70
        0x000036b8:    e5c10000    ....    STRB     r0,[r1,#0]
        0x000036bc:    e285032e    ....    ADD      r0,r5,#0xb8000000
        0x000036c0:    e5900014    ....    LDR      r0,[r0,#0x14]
        0x000036c4:    e2000010    ....    AND      r0,r0,#0x10
        0x000036c8:    e1a00220     ...    LSR      r0,r0,#4
        0x000036cc:    e5890000    ....    STR      r0,[r9,#0]
        0x000036d0:    ea0000fb    ....    B        0x3ac4 ; uartIoctl + 1984
        0x000036d4:    e1a00000    ....    MOV      r0,r0
        0x000036d8:    e3540001    ..T.    CMP      r4,#1
        0x000036dc:    1a000005    ....    BNE      0x36f8 ; uartIoctl + 1012
        0x000036e0:    e285032e    ....    ADD      r0,r5,#0xb8000000
        0x000036e4:    e5900010    ....    LDR      r0,[r0,#0x10]
        0x000036e8:    e3c00002    ....    BIC      r0,r0,#2
        0x000036ec:    e285132e    ....    ADD      r1,r5,#0xb8000000
        0x000036f0:    e5810010    ....    STR      r0,[r1,#0x10]
        0x000036f4:    ea000009    ....    B        0x3720 ; uartIoctl + 1052
        0x000036f8:    e3540000    ..T.    CMP      r4,#0
        0x000036fc:    1a000005    ....    BNE      0x3718 ; uartIoctl + 1044
        0x00003700:    e285032e    ....    ADD      r0,r5,#0xb8000000
        0x00003704:    e5900010    ....    LDR      r0,[r0,#0x10]
        0x00003708:    e3800002    ....    ORR      r0,r0,#2
        0x0000370c:    e285132e    ....    ADD      r1,r5,#0xb8000000
        0x00003710:    e5810010    ....    STR      r0,[r1,#0x10]
        0x00003714:    ea000001    ....    B        0x3720 ; uartIoctl + 1052
        0x00003718:    e59f03b8    ....    LDR      r0,[pc,#952] ; [0x3ad8] = 0xffff1703
        0x0000371c:    eaffff03    ....    B        0x3330 ; uartIoctl + 44
        0x00003720:    ea0000e7    ....    B        0x3ac4 ; uartIoctl + 1984
        0x00003724:    e1a00000    ....    MOV      r0,r0
        0x00003728:    e3540001    ..T.    CMP      r4,#1
        0x0000372c:    1a000003    ....    BNE      0x3740 ; uartIoctl + 1084
        0x00003730:    e1a01009    ....    MOV      r1,r9
        0x00003734:    e1a00006    ....    MOV      r0,r6
        0x00003738:    ebfff666    f...    BL       _uartEnableInterrupt ; 0x10d8
        0x0000373c:    ea000007    ....    B        0x3760 ; uartIoctl + 1116
        0x00003740:    e3540000    ..T.    CMP      r4,#0
        0x00003744:    1a000003    ....    BNE      0x3758 ; uartIoctl + 1108
        0x00003748:    e1a01009    ....    MOV      r1,r9
        0x0000374c:    e1a00006    ....    MOV      r0,r6
        0x00003750:    ebfff650    P...    BL       _uartDisableInterrupt ; 0x1098
        0x00003754:    ea000001    ....    B        0x3760 ; uartIoctl + 1116
        0x00003758:    e59f0378    x...    LDR      r0,[pc,#888] ; [0x3ad8] = 0xffff1703
        0x0000375c:    eafffef3    ....    B        0x3330 ; uartIoctl + 44
        0x00003760:    ea0000d7    ....    B        0x3ac4 ; uartIoctl + 1984
        0x00003764:    e1a00000    ....    MOV      r0,r0
        0x00003768:    e285032e    ....    ADD      r0,r5,#0xb8000000
        0x0000376c:    e590800c    ....    LDR      r8,[r0,#0xc]
        0x00003770:    e3540001    ..T.    CMP      r4,#1
        0x00003774:    1a000003    ....    BNE      0x3788 ; uartIoctl + 1156
        0x00003778:    e3888040    @...    ORR      r8,r8,#0x40
        0x0000377c:    e285032e    ....    ADD      r0,r5,#0xb8000000
        0x00003780:    e580800c    ....    STR      r8,[r0,#0xc]
        0x00003784:    ea000007    ....    B        0x37a8 ; uartIoctl + 1188
        0x00003788:    e3540000    ..T.    CMP      r4,#0
        0x0000378c:    1a000003    ....    BNE      0x37a0 ; uartIoctl + 1180
        0x00003790:    e3c88040    @...    BIC      r8,r8,#0x40
        0x00003794:    e285032e    ....    ADD      r0,r5,#0xb8000000
        0x00003798:    e580800c    ....    STR      r8,[r0,#0xc]
        0x0000379c:    ea000001    ....    B        0x37a8 ; uartIoctl + 1188
        0x000037a0:    e59f0330    0...    LDR      r0,[pc,#816] ; [0x3ad8] = 0xffff1703
        0x000037a4:    eafffee1    ....    B        0x3330 ; uartIoctl + 44
        0x000037a8:    ea0000c5    ....    B        0x3ac4 ; uartIoctl + 1984
        0x000037ac:    e1a00000    ....    MOV      r0,r0
        0x000037b0:    e356000b    ..V.    CMP      r6,#0xb
        0x000037b4:    308ff106    ...0    ADDCC    pc,pc,r6,LSL #2
        0x000037b8:    ea000041    A...    B        0x38c4 ; uartIoctl + 1472
        0x000037bc:    ea000009    ....    B        0x37e8 ; uartIoctl + 1252
        0x000037c0:    ea00000d    ....    B        0x37fc ; uartIoctl + 1272
        0x000037c4:    ea000011    ....    B        0x3810 ; uartIoctl + 1292
        0x000037c8:    ea000015    ....    B        0x3824 ; uartIoctl + 1312
        0x000037cc:    ea000019    ....    B        0x3838 ; uartIoctl + 1332
        0x000037d0:    ea00001d    ....    B        0x384c ; uartIoctl + 1352
        0x000037d4:    ea000021    !...    B        0x3860 ; uartIoctl + 1372
        0x000037d8:    ea000025    %...    B        0x3874 ; uartIoctl + 1392
        0x000037dc:    ea000029    )...    B        0x3888 ; uartIoctl + 1412
        0x000037e0:    ea00002d    -...    B        0x389c ; uartIoctl + 1432
        0x000037e4:    ea000031    1...    B        0x38b0 ; uartIoctl + 1452
        0x000037e8:    e1a00000    ....    MOV      r0,r0
        0x000037ec:    e59f0310    ....    LDR      r0,[pc,#784] ; [0x3b04] = 0x3e5b
        0x000037f0:    e5d00000    ....    LDRB     r0,[r0,#0]
        0x000037f4:    e5840000    ....    STR      r0,[r4,#0]
        0x000037f8:    ea000033    3...    B        0x38cc ; uartIoctl + 1480
        0x000037fc:    e1a00000    ....    MOV      r0,r0
        0x00003800:    e59f0300    ....    LDR      r0,[pc,#768] ; [0x3b08] = 0x3e5c
        0x00003804:    e5d00000    ....    LDRB     r0,[r0,#0]
        0x00003808:    e5840000    ....    STR      r0,[r4,#0]
        0x0000380c:    ea00002e    ....    B        0x38cc ; uartIoctl + 1480
        0x00003810:    e1a00000    ....    MOV      r0,r0
        0x00003814:    e59f02f0    ....    LDR      r0,[pc,#752] ; [0x3b0c] = 0x3e5d
        0x00003818:    e5d00000    ....    LDRB     r0,[r0,#0]
        0x0000381c:    e5840000    ....    STR      r0,[r4,#0]
        0x00003820:    ea000029    )...    B        0x38cc ; uartIoctl + 1480
        0x00003824:    e1a00000    ....    MOV      r0,r0
        0x00003828:    e59f02e0    ....    LDR      r0,[pc,#736] ; [0x3b10] = 0x3e5e
        0x0000382c:    e5d00000    ....    LDRB     r0,[r0,#0]
        0x00003830:    e5840000    ....    STR      r0,[r4,#0]
        0x00003834:    ea000024    $...    B        0x38cc ; uartIoctl + 1480
        0x00003838:    e1a00000    ....    MOV      r0,r0
        0x0000383c:    e59f02d0    ....    LDR      r0,[pc,#720] ; [0x3b14] = 0x3e5f
        0x00003840:    e5d00000    ....    LDRB     r0,[r0,#0]
        0x00003844:    e5840000    ....    STR      r0,[r4,#0]
        0x00003848:    ea00001f    ....    B        0x38cc ; uartIoctl + 1480
        0x0000384c:    e1a00000    ....    MOV      r0,r0
        0x00003850:    e59f02c0    ....    LDR      r0,[pc,#704] ; [0x3b18] = 0x3e60
        0x00003854:    e5d00000    ....    LDRB     r0,[r0,#0]
        0x00003858:    e5840000    ....    STR      r0,[r4,#0]
        0x0000385c:    ea00001a    ....    B        0x38cc ; uartIoctl + 1480
        0x00003860:    e1a00000    ....    MOV      r0,r0
        0x00003864:    e59f02b0    ....    LDR      r0,[pc,#688] ; [0x3b1c] = 0x3e61
        0x00003868:    e5d00000    ....    LDRB     r0,[r0,#0]
        0x0000386c:    e5840000    ....    STR      r0,[r4,#0]
        0x00003870:    ea000015    ....    B        0x38cc ; uartIoctl + 1480
        0x00003874:    e1a00000    ....    MOV      r0,r0
        0x00003878:    e59f02a0    ....    LDR      r0,[pc,#672] ; [0x3b20] = 0x3e62
        0x0000387c:    e5d00000    ....    LDRB     r0,[r0,#0]
        0x00003880:    e5840000    ....    STR      r0,[r4,#0]
        0x00003884:    ea000010    ....    B        0x38cc ; uartIoctl + 1480
        0x00003888:    e1a00000    ....    MOV      r0,r0
        0x0000388c:    e59f0290    ....    LDR      r0,[pc,#656] ; [0x3b24] = 0x3e63
        0x00003890:    e5d00000    ....    LDRB     r0,[r0,#0]
        0x00003894:    e5840000    ....    STR      r0,[r4,#0]
        0x00003898:    ea00000b    ....    B        0x38cc ; uartIoctl + 1480
        0x0000389c:    e1a00000    ....    MOV      r0,r0
        0x000038a0:    e59f0280    ....    LDR      r0,[pc,#640] ; [0x3b28] = 0x3e64
        0x000038a4:    e5d00000    ....    LDRB     r0,[r0,#0]
        0x000038a8:    e5840000    ....    STR      r0,[r4,#0]
        0x000038ac:    ea000006    ....    B        0x38cc ; uartIoctl + 1480
        0x000038b0:    e1a00000    ....    MOV      r0,r0
        0x000038b4:    e59f0270    p...    LDR      r0,[pc,#624] ; [0x3b2c] = 0x3e65
        0x000038b8:    e5d00000    ....    LDRB     r0,[r0,#0]
        0x000038bc:    e5840000    ....    STR      r0,[r4,#0]
        0x000038c0:    ea000001    ....    B        0x38cc ; uartIoctl + 1480
        0x000038c4:    e1a00000    ....    MOV      r0,r0
        0x000038c8:    e1a00000    ....    MOV      r0,r0
        0x000038cc:    e1a00000    ....    MOV      r0,r0
        0x000038d0:    ea00007b    {...    B        0x3ac4 ; uartIoctl + 1984
        0x000038d4:    e1a00000    ....    MOV      r0,r0
        0x000038d8:    e59f0250    P...    LDR      r0,[pc,#592] ; [0x3b30] = 0x3e71
        0x000038dc:    e5d00000    ....    LDRB     r0,[r0,#0]
        0x000038e0:    e3500002    ..P.    CMP      r0,#2
        0x000038e4:    1a000001    ....    BNE      0x38f0 ; uartIoctl + 1516
        0x000038e8:    e59f01e8    ....    LDR      r0,[pc,#488] ; [0x3ad8] = 0xffff1703
        0x000038ec:    eafffe8f    ....    B        0x3330 ; uartIoctl + 44
        0x000038f0:    e3a00001    ....    MOV      r0,#1
        0x000038f4:    e59f1234    4...    LDR      r1,[pc,#564] ; [0x3b30] = 0x3e71
        0x000038f8:    e5c10000    ....    STRB     r0,[r1,#0]
        0x000038fc:    e3a01001    ....    MOV      r1,#1
        0x00003900:    e1a00006    ....    MOV      r0,r6
        0x00003904:    ebfff5f3    ....    BL       _uartEnableInterrupt ; 0x10d8
        0x00003908:    e285032e    ....    ADD      r0,r5,#0xb8000000
        0x0000390c:    e5900010    ....    LDR      r0,[r0,#0x10]
        0x00003910:    e3800c02    ....    ORR      r0,r0,#0x200
        0x00003914:    e285132e    ....    ADD      r1,r5,#0xb8000000
        0x00003918:    e5810010    ....    STR      r0,[r1,#0x10]
        0x0000391c:    e285032e    ....    ADD      r0,r5,#0xb8000000
        0x00003920:    e5900014    ....    LDR      r0,[r0,#0x14]
        0x00003924:    e3800c01    ....    ORR      r0,r0,#0x100
        0x00003928:    e285132e    ....    ADD      r1,r5,#0xb8000000
        0x0000392c:    e5810014    ....    STR      r0,[r1,#0x14]
        0x00003930:    e285032e    ....    ADD      r0,r5,#0xb8000000
        0x00003934:    e5900004    ....    LDR      r0,[r0,#4]
        0x00003938:    e3800a03    ....    ORR      r0,r0,#0x3000
        0x0000393c:    e285132e    ....    ADD      r1,r5,#0xb8000000
        0x00003940:    e5810004    ....    STR      r0,[r1,#4]
        0x00003944:    ea00005e    ^...    B        0x3ac4 ; uartIoctl + 1984
        0x00003948:    e1a00000    ....    MOV      r0,r0
        0x0000394c:    e3a01008    ....    MOV      r1,#8
        0x00003950:    e1a00006    ....    MOV      r0,r6
        0x00003954:    ebfff5cf    ....    BL       _uartDisableInterrupt ; 0x1098
        0x00003958:    e3a00000    ....    MOV      r0,#0
        0x0000395c:    e59f11cc    ....    LDR      r1,[pc,#460] ; [0x3b30] = 0x3e71
        0x00003960:    e5c10000    ....    STRB     r0,[r1,#0]
        0x00003964:    e59f11c8    ....    LDR      r1,[pc,#456] ; [0x3b34] = 0x3e72
        0x00003968:    e5c10000    ....    STRB     r0,[r1,#0]
        0x0000396c:    e59f11c4    ....    LDR      r1,[pc,#452] ; [0x3b38] = 0x3e73
        0x00003970:    e5c10000    ....    STRB     r0,[r1,#0]
        0x00003974:    ea000052    R...    B        0x3ac4 ; uartIoctl + 1984
        0x00003978:    e1a00000    ....    MOV      r0,r0
        0x0000397c:    e3a00000    ....    MOV      r0,#0
        0x00003980:    e5870004    ....    STR      r0,[r7,#4]
        0x00003984:    e5870000    ....    STR      r0,[r7,#0]
        0x00003988:    ea00004d    M...    B        0x3ac4 ; uartIoctl + 1984
        0x0000398c:    e1a00000    ....    MOV      r0,r0
        0x00003990:    e3a00000    ....    MOV      r0,#0
        0x00003994:    e587000c    ....    STR      r0,[r7,#0xc]
        0x00003998:    e5870008    ....    STR      r0,[r7,#8]
        0x0000399c:    e5870028    (...    STR      r0,[r7,#0x28]
        0x000039a0:    ea000047    G...    B        0x3ac4 ; uartIoctl + 1984
        0x000039a4:    e1a00000    ....    MOV      r0,r0
        0x000039a8:    e3a00003    ....    MOV      r0,#3
        0x000039ac:    e285132e    ....    ADD      r1,r5,#0xb8000000
        0x000039b0:    e5810030    0...    STR      r0,[r1,#0x30]
        0x000039b4:    e3a00000    ....    MOV      r0,#0
        0x000039b8:    e285132e    ....    ADD      r1,r5,#0xb8000000
        0x000039bc:    e5810010    ....    STR      r0,[r1,#0x10]
        0x000039c0:    e3a0003b    ;...    MOV      r0,#0x3b
        0x000039c4:    e285132e    ....    ADD      r1,r5,#0xb8000000
        0x000039c8:    e581000c    ....    STR      r0,[r1,#0xc]
        0x000039cc:    e1840c09    ....    ORR      r0,r4,r9,LSL #24
        0x000039d0:    e285132e    ....    ADD      r1,r5,#0xb8000000
        0x000039d4:    e581002c    ,...    STR      r0,[r1,#0x2c]
        0x000039d8:    ea000039    9...    B        0x3ac4 ; uartIoctl + 1984
        0x000039dc:    e1a00000    ....    MOV      r0,r0
        0x000039e0:    e1a00000    ....    MOV      r0,r0
        0x000039e4:    e285032e    ....    ADD      r0,r5,#0xb8000000
        0x000039e8:    e5900018    ....    LDR      r0,[r0,#0x18]
        0x000039ec:    e2000201    ....    AND      r0,r0,#0x10000000
        0x000039f0:    e3500000    ..P.    CMP      r0,#0
        0x000039f4:    0afffffa    ....    BEQ      0x39e4 ; uartIoctl + 1760
        0x000039f8:    e285032e    ....    ADD      r0,r5,#0xb8000000
        0x000039fc:    e590800c    ....    LDR      r8,[r0,#0xc]
        0x00003a00:    e3a0002b    +...    MOV      r0,#0x2b
        0x00003a04:    e285132e    ....    ADD      r1,r5,#0xb8000000
        0x00003a08:    e581000c    ....    STR      r0,[r1,#0xc]
        0x00003a0c:    e285032e    ....    ADD      r0,r5,#0xb8000000
        0x00003a10:    e5804000    .@..    STR      r4,[r0,#0]
        0x00003a14:    e1a00000    ....    MOV      r0,r0
        0x00003a18:    e285032e    ....    ADD      r0,r5,#0xb8000000
        0x00003a1c:    e5900018    ....    LDR      r0,[r0,#0x18]
        0x00003a20:    e2000201    ....    AND      r0,r0,#0x10000000
        0x00003a24:    e3500000    ..P.    CMP      r0,#0
        0x00003a28:    0afffffa    ....    BEQ      0x3a18 ; uartIoctl + 1812
        0x00003a2c:    e285032e    ....    ADD      r0,r5,#0xb8000000
        0x00003a30:    e580800c    ....    STR      r8,[r0,#0xc]
        0x00003a34:    ea000022    "...    B        0x3ac4 ; uartIoctl + 1984
        0x00003a38:    e1a00000    ....    MOV      r0,r0
        0x00003a3c:    e285032e    ....    ADD      r0,r5,#0xb8000000
        0x00003a40:    e5908008    ....    LDR      r8,[r0,#8]
        0x00003a44:    e3540001    ..T.    CMP      r4,#1
        0x00003a48:    1a000001    ....    BNE      0x3a54 ; uartIoctl + 1872
        0x00003a4c:    e3888c01    ....    ORR      r8,r8,#0x100
        0x00003a50:    ea000000    ....    B        0x3a58 ; uartIoctl + 1876
        0x00003a54:    e3c88c01    ....    BIC      r8,r8,#0x100
        0x00003a58:    e285032e    ....    ADD      r0,r5,#0xb8000000
        0x00003a5c:    e5808008    ....    STR      r8,[r0,#8]
        0x00003a60:    ea000017    ....    B        0x3ac4 ; uartIoctl + 1984
        0x00003a64:    e1a00000    ....    MOV      r0,r0
        0x00003a68:    e285032e    ....    ADD      r0,r5,#0xb8000000
        0x00003a6c:    e580402c    ,@..    STR      r4,[r0,#0x2c]
        0x00003a70:    ea000013    ....    B        0x3ac4 ; uartIoctl + 1984
        0x00003a74:    e1a00000    ....    MOV      r0,r0
        0x00003a78:    e285032e    ....    ADD      r0,r5,#0xb8000000
        0x00003a7c:    e590002c    ,...    LDR      r0,[r0,#0x2c]
        0x00003a80:    e5840000    ....    STR      r0,[r4,#0]
        0x00003a84:    ea00000e    ....    B        0x3ac4 ; uartIoctl + 1984
        0x00003a88:    e1a00000    ....    MOV      r0,r0
        0x00003a8c:    e3a00001    ....    MOV      r0,#1
        0x00003a90:    e285132e    ....    ADD      r1,r5,#0xb8000000
        0x00003a94:    e5810030    0...    STR      r0,[r1,#0x30]
        0x00003a98:    e285032e    ....    ADD      r0,r5,#0xb8000000
        0x00003a9c:    e590802c    ,...    LDR      r8,[r0,#0x2c]
        0x00003aa0:    e3c880cf    ....    BIC      r8,r8,#0xcf
        0x00003aa4:    e1840009    ....    ORR      r0,r4,r9
        0x00003aa8:    e1888000    ....    ORR      r8,r8,r0
        0x00003aac:    e285032e    ....    ADD      r0,r5,#0xb8000000
        0x00003ab0:    e580802c    ,...    STR      r8,[r0,#0x2c]
        0x00003ab4:    ea000002    ....    B        0x3ac4 ; uartIoctl + 1984
        0x00003ab8:    e1a00000    ....    MOV      r0,r0
        0x00003abc:    e59f0078    x...    LDR      r0,[pc,#120] ; [0x3b3c] = 0xffff1701
        0x00003ac0:    eafffe1a    ....    B        0x3330 ; uartIoctl + 44
        0x00003ac4:    e1a00000    ....    MOV      r0,r0
        0x00003ac8:    e3a00000    ....    MOV      r0,#0
        0x00003acc:    eafffe17    ....    B        0x3330 ; uartIoctl + 44
    $d
        0x00003ad0:    ffff1702    ....    DCD    4294907650
        0x00003ad4:    00028000    ....    DCD    163840
        0x00003ad8:    ffff1703    ....    DCD    4294907651
        0x00003adc:    00003e67    g>..    DCD    15975
        0x00003ae0:    00003e68    h>..    DCD    15976
        0x00003ae4:    00003e69    i>..    DCD    15977
        0x00003ae8:    00003e6a    j>..    DCD    15978
        0x00003aec:    00003e6b    k>..    DCD    15979
        0x00003af0:    00003e6c    l>..    DCD    15980
        0x00003af4:    00003e6d    m>..    DCD    15981
        0x00003af8:    00003e6e    n>..    DCD    15982
        0x00003afc:    00003e6f    o>..    DCD    15983
        0x00003b00:    00003e70    p>..    DCD    15984
        0x00003b04:    00003e5b    [>..    DCD    15963
        0x00003b08:    00003e5c    \>..    DCD    15964
        0x00003b0c:    00003e5d    ]>..    DCD    15965
        0x00003b10:    00003e5e    ^>..    DCD    15966
        0x00003b14:    00003e5f    _>..    DCD    15967
        0x00003b18:    00003e60    `>..    DCD    15968
        0x00003b1c:    00003e61    a>..    DCD    15969
        0x00003b20:    00003e62    b>..    DCD    15970
        0x00003b24:    00003e63    c>..    DCD    15971
        0x00003b28:    00003e64    d>..    DCD    15972
        0x00003b2c:    00003e65    e>..    DCD    15973
        0x00003b30:    00003e71    q>..    DCD    15985
        0x00003b34:    00003e72    r>..    DCD    15986
        0x00003b38:    00003e73    s>..    DCD    15987
        0x00003b3c:    ffff1701    ....    DCD    4294907649
    $a
    i.uartOpen
    uartOpen
        0x00003b40:    e92d4070    p@-.    PUSH     {r4-r6,lr}
        0x00003b44:    e1a04000    .@..    MOV      r4,r0
        0x00003b48:    e3a05000    .P..    MOV      r5,#0
        0x00003b4c:    e1a06004    .`..    MOV      r6,r4
        0x00003b50:    e1a00004    ....    MOV      r0,r4
        0x00003b54:    ebfff498    ....    BL       _uartConfigureUART ; 0xdbc
        0x00003b58:    e2505000    .PP.    SUBS     r5,r0,#0
        0x00003b5c:    aa000008    ....    BGE      0x3b84 ; uartOpen + 68
        0x00003b60:    e3750005    ..u.    CMN      r5,#5
        0x00003b64:    0a000004    ....    BEQ      0x3b7c ; uartOpen + 60
        0x00003b68:    e5d60008    ....    LDRB     r0,[r6,#8]
        0x00003b6c:    e0800080    ....    ADD      r0,r0,r0,LSL #1
        0x00003b70:    e59f102c    ,...    LDR      r1,[pc,#44] ; [0x3ba4] = 0x28000
        0x00003b74:    e0810200    ....    ADD      r0,r1,r0,LSL #4
        0x00003b78:    e580502c    ,P..    STR      r5,[r0,#0x2c]
        0x00003b7c:    e59f0024    $...    LDR      r0,[pc,#36] ; [0x3ba8] = 0xffff1703
        0x00003b80:    e8bd8070    p...    POP      {r4-r6,pc}
        0x00003b84:    e3a00000    ....    MOV      r0,#0
        0x00003b88:    e5d61008    ....    LDRB     r1,[r6,#8]
        0x00003b8c:    e0811081    ....    ADD      r1,r1,r1,LSL #1
        0x00003b90:    e59f200c    . ..    LDR      r2,[pc,#12] ; [0x3ba4] = 0x28000
        0x00003b94:    e0821201    ....    ADD      r1,r2,r1,LSL #4
        0x00003b98:    e581002c    ,...    STR      r0,[r1,#0x2c]
        0x00003b9c:    e1a00000    ....    MOV      r0,r0
        0x00003ba0:    eafffff6    ....    B        0x3b80 ; uartOpen + 64
    $d
        0x00003ba4:    00028000    ....    DCD    163840
        0x00003ba8:    ffff1703    ....    DCD    4294907651
    $d.realdata
    Region$$Table$$Base
        0x00003bac:    00003bdc    .;..    DCD    15324
        0x00003bb0:    00003e7c    |>..    DCD    15996
        0x00003bb4:    0000001c    ....    DCD    28
        0x00003bb8:    00000150    P...    DCD    336
        0x00003bbc:    00003e7c    |>..    DCD    15996
        0x00003bc0:    00003bdc    .;..    DCD    15324
        0x00003bc4:    000002a0    ....    DCD    672
        0x00003bc8:    000000f4    ....    DCD    244
        0x00003bcc:    00003bf8    .;..    DCD    15352
        0x00003bd0:    00003e7c    |>..    DCD    15996
        0x00003bd4:    00024398    .C..    DCD    148376
        0x00003bd8:    00000178    x...    DCD    376
    Region$$Table$$Limit

** Section #2 'RW_RAM1' (SHT_PROGBITS) [SHF_ALLOC + SHF_WRITE]
    Size   : 28 bytes (alignment 4)
    Address: 0x00003bdc


** Section #3 'RW_RAM1' (SHT_NOBITS) [SHF_ALLOC + SHF_WRITE]
    Size   : 148376 bytes (alignment 16384)
    Address: 0x00003e7c


** Section #4 '.debug_abbrev' (SHT_PROGBITS)
    Size   : 1476 bytes


** Section #5 '.debug_frame' (SHT_PROGBITS)
    Size   : 2768 bytes


** Section #6 '.debug_info' (SHT_PROGBITS)
    Size   : 23980 bytes


** Section #7 '.debug_line' (SHT_PROGBITS)
    Size   : 10584 bytes


** Section #8 '.debug_loc' (SHT_PROGBITS)
    Size   : 4540 bytes


** Section #9 '.debug_macinfo' (SHT_PROGBITS)
    Size   : 110916 bytes


** Section #10 '.debug_pubnames' (SHT_PROGBITS)
    Size   : 1672 bytes


** Section #11 '.symtab' (SHT_SYMTAB)
    Size   : 9120 bytes (alignment 4)
    String table #12 '.strtab'
    Last local symbol no. 425


** Section #12 '.strtab' (SHT_STRTAB)
    Size   : 7124 bytes


** Section #13 '.note' (SHT_NOTE)
    Size   : 28 bytes (alignment 4)


** Section #14 '.comment' (SHT_PROGBITS)
    Size   : 4180 bytes


** Section #15 '.shstrtab' (SHT_STRTAB)
    Size   : 152 bytes


